(dp0
S'M1'
p1
(dp2
S'evals'
p3
(lp4
I52
asS'igd'
p5
(lp6
cnumpy.core.multiarray
scalar
p7
(cnumpy
dtype
p8
(S'f8'
p9
I0
I1
tp10
Rp11
(I3
S'<'
p12
NNNI-1
I-1
I0
tp13
bS'J\xf2\x9dyT\xa3\x91?'
p14
tp15
Rp16
asS'gen_dist'
p17
(lp18
g7
(g11
S'\xb7\xb8\x0c\x7f\xf9%\x83?'
p19
tp20
Rp21
asS'time'
p22
F28.205731868743896
ss.