(dp0
S'P1'
p1
(dp2
S'evals'
p3
(lp4
I52
asS'igd'
p5
(lp6
cnumpy.core.multiarray
scalar
p7
(cnumpy
dtype
p8
(S'f8'
p9
I0
I1
tp10
Rp11
(I3
S'<'
p12
NNNI-1
I-1
I0
tp13
bS'\xda\x05\xca\xb8\xfaw\xa1?'
p14
tp15
Rp16
asS'gen_dist'
p17
(lp18
g7
(g11
S'p\x91\x19\x19Y\x80\xa6?'
p19
tp20
Rp21
asS'time'
p22
F12.523360967636108
ss.