(dp0
S'P3'
p1
(dp2
S'evals'
p3
(lp4
I55
asS'igd'
p5
(lp6
cnumpy.core.multiarray
scalar
p7
(cnumpy
dtype
p8
(S'f8'
p9
I0
I1
tp10
Rp11
(I3
S'<'
p12
NNNI-1
I-1
I0
tp13
bS'\x89\x05\xe7z\xb6\xac\xab?'
p14
tp15
Rp16
asS'gen_dist'
p17
(lp18
g7
(g11
S'e\xbd\xc8\x89\xa7*\x92?'
p19
tp20
Rp21
asS'time'
p22
F13.006537914276123
ss.