(dp0
S'X1'
p1
(dp2
S'evals'
p3
(lp4
I55
asS'igd'
p5
(lp6
cnumpy.core.multiarray
scalar
p7
(cnumpy
dtype
p8
(S'f8'
p9
I0
I1
tp10
Rp11
(I3
S'<'
p12
NNNI-1
I-1
I0
tp13
bS'i\xffP\x1f\xc3\xd2\x83?'
p14
tp15
Rp16
asS'gen_dist'
p17
(lp18
g7
(g11
S'\x02\x91\x9c\xcf\x97:\xa6?'
p19
tp20
Rp21
asS'time'
p22
F8.71478819847107
ss.