(dp0
S'M2'
p1
(dp2
S'evals'
p3
(lp4
I112
asS'igd'
p5
(lp6
cnumpy.core.multiarray
scalar
p7
(cnumpy
dtype
p8
(S'f8'
p9
I0
I1
tp10
Rp11
(I3
S'<'
p12
NNNI-1
I-1
I0
tp13
bS'\x89\xae\x00\xe8\xb2\xfd\x82?'
p14
tp15
Rp16
asS'gen_dist'
p17
(lp18
g7
(g11
S'\xa3\xb8\xe1\xe2m\xb9q?'
p19
tp20
Rp21
asS'time'
p22
F34.76655888557434
ss.