(dp0
S'M3'
p1
(dp2
S'evals'
p3
(lp4
I114
asS'igd'
p5
(lp6
cnumpy.core.multiarray
scalar
p7
(cnumpy
dtype
p8
(S'f8'
p9
I0
I1
tp10
Rp11
(I3
S'<'
p12
NNNI-1
I-1
I0
tp13
bS'\xf6\x87\xf7\xd3r#\x89?'
p14
tp15
Rp16
asS'gen_dist'
p17
(lp18
g7
(g11
S'\x9ap\x8b\xa0\xd6\xe6o?'
p19
tp20
Rp21
asS'time'
p22
F31.710328817367554
ss.