(dp0
S'P2'
p1
(dp2
S'evals'
p3
(lp4
I112
asS'igd'
p5
(lp6
cnumpy.core.multiarray
scalar
p7
(cnumpy
dtype
p8
(S'f8'
p9
I0
I1
tp10
Rp11
(I3
S'<'
p12
NNNI-1
I-1
I0
tp13
bS'\xc6\xd2\xa7e\xb4\xbf\xa5?'
p14
tp15
Rp16
asS'gen_dist'
p17
(lp18
g7
(g11
S'\xac\x13\xc99\x90\xd1\xcd?'
p19
tp20
Rp21
asS'time'
p22
F16.779191970825195
ss.