(dp0
S'P3'
p1
(dp2
S'evals'
p3
(lp4
I112
asS'igd'
p5
(lp6
cnumpy.core.multiarray
scalar
p7
(cnumpy
dtype
p8
(S'f8'
p9
I0
I1
tp10
Rp11
(I3
S'<'
p12
NNNI-1
I-1
I0
tp13
bS'\xef\x98\t\xdc\xa2\x1a\x9c?'
p14
tp15
Rp16
asS'gen_dist'
p17
(lp18
g7
(g11
S'\xaf\x82\xd7vN\xc1\x97?'
p19
tp20
Rp21
asS'time'
p22
F23.46988797187805
ss.