(dp0
S'X1'
p1
(dp2
S'evals'
p3
(lp4
I114
asS'igd'
p5
(lp6
cnumpy.core.multiarray
scalar
p7
(cnumpy
dtype
p8
(S'f8'
p9
I0
I1
tp10
Rp11
(I3
S'<'
p12
NNNI-1
I-1
I0
tp13
bS"'\t\xf3\xc1\xf5\xe1p?"
p14
tp15
Rp16
asS'gen_dist'
p17
(lp18
g7
(g11
S'\xbad\x00\xdd\xdf\x92\x95?'
p19
tp20
Rp21
asS'time'
p22
F20.41568112373352
ss.