(dp0
S'X1'
p1
(dp2
S'evals'
p3
(lp4
I112
asS'igd'
p5
(lp6
cnumpy.core.multiarray
scalar
p7
(cnumpy
dtype
p8
(S'f8'
p9
I0
I1
tp10
Rp11
(I3
S'<'
p12
NNNI-1
I-1
I0
tp13
bS'\xab\xa7\x95\x05\xaf!\x85?'
p14
tp15
Rp16
asS'gen_dist'
p17
(lp18
g7
(g11
S'\xa5\x87\xa1\x84\x7f\x90\x91?'
p19
tp20
Rp21
asS'time'
p22
F21.185412883758545
ss.