(dp0
S'X2'
p1
(dp2
S'evals'
p3
(lp4
I113
asS'igd'
p5
(lp6
cnumpy.core.multiarray
scalar
p7
(cnumpy
dtype
p8
(S'f8'
p9
I0
I1
tp10
Rp11
(I3
S'<'
p12
NNNI-1
I-1
I0
tp13
bS'\xb1~\x07\xa1w\x17\x96?'
p14
tp15
Rp16
asS'gen_dist'
p17
(lp18
g7
(g11
S"N\x90\xa0=\xe9'\xa1?"
p19
tp20
Rp21
asS'time'
p22
F22.480552911758423
ss.