(dp0
S'X5'
p1
(dp2
S'evals'
p3
(lp4
I114
asS'igd'
p5
(lp6
cnumpy.core.multiarray
scalar
p7
(cnumpy
dtype
p8
(S'f8'
p9
I0
I1
tp10
Rp11
(I3
S'<'
p12
NNNI-1
I-1
I0
tp13
bS'\xdf\x1b\xe8\n\x9bzv?'
p14
tp15
Rp16
asS'gen_dist'
p17
(lp18
g7
(g11
S'\xd4k\x00\xc4\xca\xe7\xab?'
p19
tp20
Rp21
asS'time'
p22
F20.056200981140137
ss.