(dp0
S'M2'
p1
(dp2
S'evals'
p3
(lp4
I112
asS'igd'
p5
(lp6
cnumpy.core.multiarray
scalar
p7
(cnumpy
dtype
p8
(S'f8'
p9
I0
I1
tp10
Rp11
(I3
S'<'
p12
NNNI-1
I-1
I0
tp13
bS']\xf9\xb5\x17\x99\x9f\x80?'
p14
tp15
Rp16
asS'gen_dist'
p17
(lp18
g7
(g11
S'\x1dF(\xdf\xf6\xc7v?'
p19
tp20
Rp21
asS'time'
p22
F31.473639965057373
ss.