(dp0
S'M4'
p1
(dp2
S'evals'
p3
(lp4
I111
asS'igd'
p5
(lp6
cnumpy.core.multiarray
scalar
p7
(cnumpy
dtype
p8
(S'f8'
p9
I0
I1
tp10
Rp11
(I3
S'<'
p12
NNNI-1
I-1
I0
tp13
bS'\x8c\x1d\xb2\xf2\xb7\x87\x88?'
p14
tp15
Rp16
asS'gen_dist'
p17
(lp18
g7
(g11
S'Cf\x8eM\x9b\x97n?'
p19
tp20
Rp21
asS'time'
p22
F30.449071168899536
ss.