(dp0
S'P4'
p1
(dp2
S'evals'
p3
(lp4
I112
asS'igd'
p5
(lp6
cnumpy.core.multiarray
scalar
p7
(cnumpy
dtype
p8
(S'f8'
p9
I0
I1
tp10
Rp11
(I3
S'<'
p12
NNNI-1
I-1
I0
tp13
bS'V\xf7\xd2\x00\xd89\xe9?'
p14
tp15
Rp16
asS'gen_dist'
p17
(lp18
g7
(g11
S'Sj&\x1d\xe2\xa1\xc2?'
p19
tp20
Rp21
asS'time'
p22
F18.521240949630737
ss.