(dp0
S'M1'
p1
(dp2
S'evals'
p3
(lp4
I32
asS'igd'
p5
(lp6
cnumpy.core.multiarray
scalar
p7
(cnumpy
dtype
p8
(S'f8'
p9
I0
I1
tp10
Rp11
(I3
S'<'
p12
NNNI-1
I-1
I0
tp13
bS'L\xf3\xea\xce\x03\xe9\x9c?'
p14
tp15
Rp16
asS'gen_dist'
p17
(lp18
g7
(g11
S'\x91\xaa\x8b\x8c\x88\xcc\x87?'
p19
tp20
Rp21
asS'time'
p22
F20.82727813720703
ss.