(dp0
S'P1'
p1
(dp2
S'evals'
p3
(lp4
I31
asS'igd'
p5
(lp6
cnumpy.core.multiarray
scalar
p7
(cnumpy
dtype
p8
(S'f8'
p9
I0
I1
tp10
Rp11
(I3
S'<'
p12
NNNI-1
I-1
I0
tp13
bS'Z\x8c&\xa6\x91\x1e\xa0?'
p14
tp15
Rp16
asS'gen_dist'
p17
(lp18
g7
(g11
S'\x1a\x1c*\xfc\x1e7\xa4?'
p19
tp20
Rp21
asS'time'
p22
F6.974668979644775
ss.