(dp0
S'P3'
p1
(dp2
S'evals'
p3
(lp4
I34
asS'igd'
p5
(lp6
cnumpy.core.multiarray
scalar
p7
(cnumpy
dtype
p8
(S'f8'
p9
I0
I1
tp10
Rp11
(I3
S'<'
p12
NNNI-1
I-1
I0
tp13
bS'\xe4\x18\xd1\xf5\x85\xd4\xa6?'
p14
tp15
Rp16
asS'gen_dist'
p17
(lp18
g7
(g11
S'\x8a\x12\xf0\xadm\x01\xa2?'
p19
tp20
Rp21
asS'time'
p22
F9.646791934967041
ss.