(dp0
S'P4'
p1
(dp2
S'evals'
p3
(lp4
I32
asS'igd'
p5
(lp6
cnumpy.core.multiarray
scalar
p7
(cnumpy
dtype
p8
(S'f8'
p9
I0
I1
tp10
Rp11
(I3
S'<'
p12
NNNI-1
I-1
I0
tp13
bS'\x1c\xc5\x87\x14\xe5\x83\xe9?'
p14
tp15
Rp16
asS'gen_dist'
p17
(lp18
g7
(g11
S'\xea\x17\x89\xf2\xaf+\xcd?'
p19
tp20
Rp21
asS'time'
p22
F6.9267048835754395
ss.