(dp0
S'P4'
p1
(dp2
S'evals'
p3
(lp4
I31
asS'igd'
p5
(lp6
cnumpy.core.multiarray
scalar
p7
(cnumpy
dtype
p8
(S'f8'
p9
I0
I1
tp10
Rp11
(I3
S'<'
p12
NNNI-1
I-1
I0
tp13
bS'M\x04\xd9\x18\xe75\xdd?'
p14
tp15
Rp16
asS'gen_dist'
p17
(lp18
g7
(g11
S'3\xc4\x060\xf3\xc5\xc7?'
p19
tp20
Rp21
asS'time'
p22
F4.899184942245483
ss.