(dp0
S'X4'
p1
(dp2
S'evals'
p3
(lp4
I36
asS'igd'
p5
(lp6
cnumpy.core.multiarray
scalar
p7
(cnumpy
dtype
p8
(S'f8'
p9
I0
I1
tp10
Rp11
(I3
S'<'
p12
NNNI-1
I-1
I0
tp13
bS'\x88\xe1\xac\r8A\x91?'
p14
tp15
Rp16
asS'gen_dist'
p17
(lp18
g7
(g11
S'\xb5\x99\xa8\xfc\xe8\x99\xb4?'
p19
tp20
Rp21
asS'time'
p22
F6.233182191848755
ss.