(dp0
S'X4'
p1
(dp2
S'evals'
p3
(lp4
I33
asS'igd'
p5
(lp6
cnumpy.core.multiarray
scalar
p7
(cnumpy
dtype
p8
(S'f8'
p9
I0
I1
tp10
Rp11
(I3
S'<'
p12
NNNI-1
I-1
I0
tp13
bS'}/\xf0Q\xfd\xd0|?'
p14
tp15
Rp16
asS'gen_dist'
p17
(lp18
g7
(g11
S'\xad\xb4\xac$(I\x9a?'
p19
tp20
Rp21
asS'time'
p22
F8.316824913024902
ss.