(dp0
S'P2'
p1
(dp2
S'evals'
p3
(lp4
(lp5
I111
aag5
a(lp6
I111
aa(lp7
I114
aa(lp8
I113
aa(lp9
I113
aa(lp10
I111
aa(lp11
I111
aa(lp12
I114
aa(lp13
I111
aa(lp14
I112
aa(lp15
I113
aa(lp16
I112
aa(lp17
I113
aa(lp18
I113
aa(lp19
I112
aa(lp20
I117
aa(lp21
I111
aa(lp22
I111
aa(lp23
I111
aa(lp24
I111
aasS'igd'
p25
(lp26
(lp27
cnumpy.core.multiarray
scalar
p28
(cnumpy
dtype
p29
(S'f8'
p30
I0
I1
tp31
Rp32
(I3
S'<'
p33
NNNI-1
I-1
I0
tp34
bS'\xbe\xf4z\xba\xc4\xb9\xd1?'
p35
tp36
Rp37
aag27
a(lp38
g28
(g32
S',73\x96\x07\xb4\xd1?'
p39
tp40
Rp41
aa(lp42
g28
(g32
S"pS\xa8'\xb2\xbe\xd1?"
p43
tp44
Rp45
aa(lp46
g28
(g32
S'\xbe\xf4z\xba\xc4\xb9\xd1?'
p47
tp48
Rp49
aa(lp50
g28
(g32
S'\xc5\xf1\x98\xc7V\xd7\xd0?'
p51
tp52
Rp53
aa(lp54
g28
(g32
S'W\x0ej%\x97\x0e\xd3?'
p55
tp56
Rp57
aa(lp58
g28
(g32
S'-\xff\x8c\x8cm\xb9\xd1?'
p59
tp60
Rp61
aa(lp62
g28
(g32
S'{\x8aE\xda\xe7r\xd2?'
p63
tp64
Rp65
aa(lp66
g28
(g32
S'\xc6P"\x01\xda\x08\xd3?'
p67
tp68
Rp69
aa(lp70
g28
(g32
S'n@}\x0c\xee\x81\x9f?'
p71
tp72
Rp73
aa(lp74
g28
(g32
S'!p\xf1\xe6e\x1a\xc5?'
p75
tp76
Rp77
aa(lp78
g28
(g32
S'\xb2\x0f\xab\xbf\xe1\x92\xc7?'
p79
tp80
Rp81
aa(lp82
g28
(g32
S'\xbe\xf4z\xba\xc4\xb9\xd1?'
p83
tp84
Rp85
aa(lp86
g28
(g32
S'\xf6\xff\x16\x99\xc7"\xca?'
p87
tp88
Rp89
aa(lp90
g28
(g32
S']\xb8P\xa9\xcdz\xcf?'
p91
tp92
Rp93
aa(lp94
g28
(g32
S';\x9d\x18E,\xd3\xd1?'
p95
tp96
Rp97
aa(lp98
g28
(g32
S'\xbe\xf4z\xba\xc4\xb9\xd1?'
p99
tp100
Rp101
aa(lp102
g28
(g32
S'Y\\/\xb4\x88\xee\xd0?'
p103
tp104
Rp105
aa(lp106
g28
(g32
S's_1\xa5f\xdd\xd1?'
p107
tp108
Rp109
aa(lp110
g28
(g32
S'p\xf3_\xae\x1d\x15\xbe?'
p111
tp112
Rp113
aasS'gen_dist'
p114
(lp115
(lp116
g28
(g32
S'T0\x1e\x8e\xff\xe3\xbc?'
p117
tp118
Rp119
aag116
a(lp120
g28
(g32
S'\xe1\xc2"\xc0\x99R\xc6?'
p121
tp122
Rp123
aa(lp124
g28
(g32
S'\xd1\\\x9c\x8aM\xcf\xcc?'
p125
tp126
Rp127
aa(lp128
g28
(g32
S'\xca\xb1A\x1f\x87\xad\xc4?'
p129
tp130
Rp131
aa(lp132
g28
(g32
S'\x13\x04\xaa\xbb\x1cP\xc2?'
p133
tp134
Rp135
aa(lp136
g28
(g32
S'\xf8\xbd"\x8bpt\xca?'
p137
tp138
Rp139
aa(lp140
g28
(g32
S'\x99\x99\x1d\x0fqS\xcd?'
p141
tp142
Rp143
aa(lp144
g28
(g32
S'\xb0\xaa\xd2\xf4\xd7\xbb\xcd?'
p145
tp146
Rp147
aa(lp148
g28
(g32
S'\x10g\xee\x7f\xfdw\xbb?'
p149
tp150
Rp151
aa(lp152
g28
(g32
S'\x9a\xfd\xfa\x08\x05\xc1\xc4?'
p153
tp154
Rp155
aa(lp156
g28
(g32
S'\x16\x98d>\xda\xde\xce?'
p157
tp158
Rp159
aa(lp160
g28
(g32
S'\xbb\xe9P\x81\xd4\xbc\xc4?'
p161
tp162
Rp163
aa(lp164
g28
(g32
S'\xcaI\xf2\xecs[\xb7?'
p165
tp166
Rp167
aa(lp168
g28
(g32
S'\xd6\xf7\x116\xa0T\xcb?'
p169
tp170
Rp171
aa(lp172
g28
(g32
S'\xe98\xef\x98\x9f\xf4\xc5?'
p173
tp174
Rp175
aa(lp176
g28
(g32
S'X\xa3\xd5\xdbXM\xb9?'
p177
tp178
Rp179
aa(lp180
g28
(g32
S'SW\xa8\x81lR\xbf?'
p181
tp182
Rp183
aa(lp184
g28
(g32
S'\\\xd2,mI\x11\xc8?'
p185
tp186
Rp187
aa(lp188
g28
(g32
S'\t\xe0\x03\x8a\x93\xc8\xd0?'
p189
tp190
Rp191
aa(lp192
g28
(g32
S'\x17\xfa\xcd\xdc\xac\x00\xb7?'
p193
tp194
Rp195
aasS'time'
p196
(lp197
F26.325669050216675
aF26.325669050216675
aF22.37438988685608
aF20.859501123428345
aF16.93526315689087
aF17.862499952316284
aF23.328986167907715
aF20.25580096244812
aF22.688508987426758
aF19.049139976501465
aF19.230111122131348
aF23.85309410095215
aF23.912497997283936
aF17.115628004074097
aF24.029852867126465
aF20.323927879333496
aF18.142822980880737
aF15.363550901412964
aF23.28545904159546
aF17.049467086791992
aF29.265756130218506
assS'P3'
p198
(dp199
g3
(lp200
(lp201
I111
aag201
a(lp202
I111
aa(lp203
I112
aa(lp204
I113
aa(lp205
I113
aa(lp206
I111
aa(lp207
I113
aa(lp208
I111
aa(lp209
I113
aa(lp210
I114
aa(lp211
I112
aa(lp212
I112
aa(lp213
I112
aa(lp214
I115
aa(lp215
I113
aa(lp216
I112
aa(lp217
I111
aa(lp218
I114
aa(lp219
I114
aa(lp220
I113
aasg25
(lp221
(lp222
g28
(g32
S'\x11\xb2\xf2\xde\x8b{\x9b?'
p223
tp224
Rp225
aag222
a(lp226
g28
(g32
S'\x96\xba2\xa9(\x03\x9d?'
p227
tp228
Rp229
aa(lp230
g28
(g32
S'\xb0\xec\xdc\xb0,\x1d\xb0?'
p231
tp232
Rp233
aa(lp234
g28
(g32
S'\xcf4z\x8e+\x10\xb0?'
p235
tp236
Rp237
aa(lp238
g28
(g32
S'\xd1\xb2j%\x16=\xb3?'
p239
tp240
Rp241
aa(lp242
g28
(g32
S'\x93\xb9\xa31\x10j\xa1?'
p243
tp244
Rp245
aa(lp246
g28
(g32
S' \xae\xb2\x17KH\xa1?'
p247
tp248
Rp249
aa(lp250
g28
(g32
S'l/Y\xceh\xa7\xac?'
p251
tp252
Rp253
aa(lp254
g28
(g32
S'\tk=a\xe4\x14\xb0?'
p255
tp256
Rp257
aa(lp258
g28
(g32
S'|\x84\xdf\x03\xa8\x01\xac?'
p259
tp260
Rp261
aa(lp262
g28
(g32
S'\xb7\x16\xfd\xdbMy\x9c?'
p263
tp264
Rp265
aa(lp266
g28
(g32
S'#\xf6\xa5e6\xfe\x9e?'
p267
tp268
Rp269
aa(lp270
g28
(g32
S',\xa9\x0cq\xacB\x94?'
p271
tp272
Rp273
aa(lp274
g28
(g32
S'$\xec\xed\xa3\xddc\xa5?'
p275
tp276
Rp277
aa(lp278
g28
(g32
S'}\x8a\xf2\xa2V\n\xb1?'
p279
tp280
Rp281
aa(lp282
g28
(g32
S'gF\x9e\x99B;\xaa?'
p283
tp284
Rp285
aa(lp286
g28
(g32
S'\xef\xdb\xc9:\x9b\xeb\xb3?'
p287
tp288
Rp289
aa(lp290
g28
(g32
S'\xff\xa1\x19\x87H\xcc\xa0?'
p291
tp292
Rp293
aa(lp294
g28
(g32
S'\xc97!A\nm\xa7?'
p295
tp296
Rp297
aa(lp298
g28
(g32
S'\xd16\xc5\xc8\x89\x9b\x93?'
p299
tp300
Rp301
aasg114
(lp302
(lp303
g28
(g32
S'\xf6\x1f\xb1s\xab\xe3\x8f?'
p304
tp305
Rp306
aag303
a(lp307
g28
(g32
S'\x87\x7f(\xb1\xb5x\x95?'
p308
tp309
Rp310
aa(lp311
g28
(g32
S'\x9f\xdb\x15~\x85\x0eU?'
p312
tp313
Rp314
aa(lp315
g28
(g32
S'"\x85y@\xf0\xd9u?'
p316
tp317
Rp318
aa(lp319
g28
(g32
S'g\x96\xea\x8b\x9d\xf2j?'
p320
tp321
Rp322
aa(lp323
g28
(g32
S'\xb1\xe7\x1f\xfb@\xe6\xa1?'
p324
tp325
Rp326
aa(lp327
g28
(g32
S'\xd6S\xf7\xe2\xf8j\x9a?'
p328
tp329
Rp330
aa(lp331
g28
(g32
S'\x00\x00\x00\x00\x00\x00\x00\x00'
p332
tp333
Rp334
aa(lp335
g28
(g32
S';5y\xd1\xefd\x8a?'
p336
tp337
Rp338
aa(lp339
g28
(g32
S'\x81\x9bkv\x1c\x12j?'
p340
tp341
Rp342
aa(lp343
g28
(g32
S'\xea\x8cV%\xc2\x1e\x90?'
p344
tp345
Rp346
aa(lp347
g28
(g32
S'\xd6J\x0c\xe2\xcb_z?'
p348
tp349
Rp350
aa(lp351
g28
(g32
S'jg]\xa0\xde\x89\x97?'
p352
tp353
Rp354
aa(lp355
g28
(g32
S'\x8eA\xcd3\xaf\x0e\x93?'
p356
tp357
Rp358
aa(lp359
g28
(g32
S'I\xbdr\xf6\xe3\xb6\x97?'
p360
tp361
Rp362
aa(lp363
g28
(g32
S'\xc4\xa4\x8f\xed\x8d\xb9E?'
p364
tp365
Rp366
aa(lp367
g28
(g32
S'\xb0\xba\xf6\xa4&\xdc\x84?'
p368
tp369
Rp370
aa(lp371
g28
(g32
S'\x00\x00\x00\x00\x00\x00\x00\x00'
p372
tp373
Rp374
aa(lp375
g28
(g32
S'\xed\xc34\xaf,f\x9f?'
p376
tp377
Rp378
aa(lp379
g28
(g32
S'\xa5\x1d%\x02\xaf\xfe\x90?'
p380
tp381
Rp382
aasg196
(lp383
F17.13602304458618
aF17.13602304458618
aF17.857966899871826
aF23.151217937469482
aF18.40696883201599
aF20.034154891967773
aF21.04662299156189
aF21.26078701019287
aF21.01683497428894
aF20.482128143310547
aF17.818397998809814
aF21.578449964523315
aF23.235960960388184
aF19.496015071868896
aF23.18649697303772
aF20.82295298576355
aF16.179455041885376
aF29.59468698501587
aF27.27001404762268
aF20.087785959243774
aF21.455257177352905
assS'P1'
p384
(dp385
g3
(lp386
(lp387
I115
aag387
a(lp388
I111
aa(lp389
I114
aa(lp390
I112
aa(lp391
I114
aa(lp392
I111
aa(lp393
I112
aa(lp394
I111
aa(lp395
I113
aa(lp396
I111
aa(lp397
I112
aa(lp398
I114
aa(lp399
I111
aa(lp400
I113
aa(lp401
I111
aa(lp402
I112
aa(lp403
I111
aa(lp404
I113
aa(lp405
I113
aa(lp406
I113
aasg25
(lp407
(lp408
g28
(g32
S'\xd1\x9f\x93\x0b\xc3\xba\xa0?'
p409
tp410
Rp411
aag408
a(lp412
g28
(g32
S'\x98\xa0\xdf\x88!\xc5\xab?'
p413
tp414
Rp415
aa(lp416
g28
(g32
S'U\xba\x1f\x0ep0\x94?'
p417
tp418
Rp419
aa(lp420
g28
(g32
S'e*,\xd4\x855\x95?'
p421
tp422
Rp423
aa(lp424
g28
(g32
S'H<\x9d\xbd\x1dL\xa4?'
p425
tp426
Rp427
aa(lp428
g28
(g32
S'?~\xd9zeJ\xa2?'
p429
tp430
Rp431
aa(lp432
g28
(g32
S'\x99\x1fc\x91\x1e\xb1\xa0?'
p433
tp434
Rp435
aa(lp436
g28
(g32
S'\xa6\x15\\\xfb$\x82\xae?'
p437
tp438
Rp439
aa(lp440
g28
(g32
S'\x86Z!\xf4V\x05\x9e?'
p441
tp442
Rp443
aa(lp444
g28
(g32
S'\x8c\x88\x04\x92t\t\xa4?'
p445
tp446
Rp447
aa(lp448
g28
(g32
S'\x9f\x8f\xd0\xad\xa7\xb5\xa0?'
p449
tp450
Rp451
aa(lp452
g28
(g32
S'\xac\x19@0\xd9\xb0\x85?'
p453
tp454
Rp455
aa(lp456
g28
(g32
S'\xd2g\x19\xcb<\xdb\x8e?'
p457
tp458
Rp459
aa(lp460
g28
(g32
S'[\x80ych\x9e\x9f?'
p461
tp462
Rp463
aa(lp464
g28
(g32
S'~A1\xc2\x13\xb1\xa0?'
p465
tp466
Rp467
aa(lp468
g28
(g32
S'\xb1\x8e\xc2\x8eX\x07\x97?'
p469
tp470
Rp471
aa(lp472
g28
(g32
S'\xba\xd2\xb9\xed-\x11\x9c?'
p473
tp474
Rp475
aa(lp476
g28
(g32
S'zcR\x12\xce>\x8f?'
p477
tp478
Rp479
aa(lp480
g28
(g32
S'-\xea\x16\xe2@\x0b\x95?'
p481
tp482
Rp483
aa(lp484
g28
(g32
S'\x1a\xc4c\x1b?*\xa3?'
p485
tp486
Rp487
aasg114
(lp488
(lp489
g28
(g32
S'\x13\xd4\xcd% \xc8\x83?'
p490
tp491
Rp492
aag489
a(lp493
g28
(g32
S'\xa6\xf5Ic \x06U?'
p494
tp495
Rp496
aa(lp497
g28
(g32
S'\xed\xbc\xbe\x8bcGu?'
p498
tp499
Rp500
aa(lp501
g28
(g32
S'\xd9p9\xf7\x84\xea{?'
p502
tp503
Rp504
aa(lp505
g28
(g32
S'"\xa5U\x18\xfa\xc5Q?'
p506
tp507
Rp508
aa(lp509
g28
(g32
S'\x80]n\xa2%\x1bZ?'
p510
tp511
Rp512
aa(lp513
g28
(g32
S'\x88G\r/+\x08L?'
p514
tp515
Rp516
aa(lp517
g28
(g32
S',:K\x8c\xe6F\x8e?'
p518
tp519
Rp520
aa(lp521
g28
(g32
S'\xb1\x12\xacRY"\x80?'
p522
tp523
Rp524
aa(lp525
g28
(g32
S'\xa1\xf5\x1bY\x19+X?'
p526
tp527
Rp528
aa(lp529
g28
(g32
S'\x9b\x080\xdf\xde\xe0\\?'
p530
tp531
Rp532
aa(lp533
g28
(g32
S'\xf05*\x8f\xf4\xd0\x82?'
p534
tp535
Rp536
aa(lp537
g28
(g32
S'0\x8fI\x02 B\x85?'
p538
tp539
Rp540
aa(lp541
g28
(g32
S'+MLz#\x14_?'
p542
tp543
Rp544
aa(lp545
g28
(g32
S'[D\x89V\x06bV?'
p546
tp547
Rp548
aa(lp549
g28
(g32
S'\xb6\xa5=\t}\xcc\x80?'
p550
tp551
Rp552
aa(lp553
g28
(g32
S'9\xf8\xd4\x02S R?'
p554
tp555
Rp556
aa(lp557
g28
(g32
S'lN\xbd\x90\xbb\x1cP?'
p558
tp559
Rp560
aa(lp561
g28
(g32
S'N_\xbe\x93+\x9av?'
p562
tp563
Rp564
aa(lp565
g28
(g32
S'\xcf9U\xf6\x80`e?'
p566
tp567
Rp568
aasg196
(lp569
F20.886430025100708
aF20.886430025100708
aF26.203890085220337
aF24.14125108718872
aF21.032628059387207
aF20.221578121185303
aF18.67045497894287
aF18.37156105041504
aF24.22947907447815
aF24.378653049468994
aF21.74168109893799
aF18.565195083618164
aF23.075555086135864
aF23.00994896888733
aF19.84991693496704
aF22.342592000961304
aF24.570385932922363
aF16.90518093109131
aF20.147037029266357
aF29.598010063171387
aF19.410516023635864
assS'P4'
p570
(dp571
g3
(lp572
(lp573
I112
aag573
a(lp574
I112
aa(lp575
I112
aa(lp576
I114
aa(lp577
I111
aa(lp578
I112
aa(lp579
I112
aa(lp580
I111
aa(lp581
I112
aa(lp582
I112
aa(lp583
I111
aa(lp584
I115
aa(lp585
I111
aa(lp586
I113
aa(lp587
I111
aa(lp588
I114
aa(lp589
I112
aa(lp590
I113
aa(lp591
I111
aa(lp592
I112
aasg25
(lp593
(lp594
g28
(g32
S'\xd6\xfcM:\xf6B\xe6?'
p595
tp596
Rp597
aag594
a(lp598
g28
(g32
S'N\x1fNQ\xd2\x00a?'
p599
tp600
Rp601
aa(lp602
g28
(g32
S'\xeaLc\xc4w\x16\xe9?'
p603
tp604
Rp605
aa(lp606
g28
(g32
S'\xaa\x89\x99\xaa\x85\x0e\xe5?'
p607
tp608
Rp609
aa(lp610
g28
(g32
S'\x9d\xcdpT\xb8\xb5\xe9?'
p611
tp612
Rp613
aa(lp614
g28
(g32
S'tE>\xe5{\x9b\xe7?'
p615
tp616
Rp617
aa(lp618
g28
(g32
S'\xe5\xba\x84\xdd)\x13\xe9?'
p619
tp620
Rp621
aa(lp622
g28
(g32
S'\xa8\x840k\xef\x11\xe9?'
p623
tp624
Rp625
aa(lp626
g28
(g32
S'\x1f\xa7\xe2{\xef\x1e\xe8?'
p627
tp628
Rp629
aa(lp630
g28
(g32
S'\xd6\x01\xc1\x07\x8c\xae\xe9?'
p631
tp632
Rp633
aa(lp634
g28
(g32
S'\x91X\x81\x02\xf1\x0b\xe9?'
p635
tp636
Rp637
aa(lp638
g28
(g32
S'\xdb\xf6\x13\x1f\xad\x05\xe6?'
p639
tp640
Rp641
aa(lp642
g28
(g32
S'&\x06\xc9U\xe3\x14\xe9?'
p643
tp644
Rp645
aa(lp646
g28
(g32
S'\xc8\x14\xa1\x06m\x06\xe8?'
p647
tp648
Rp649
aa(lp650
g28
(g32
S'a\xadq\x96_\x12\xe5?'
p651
tp652
Rp653
aa(lp654
g28
(g32
S'\xd6\x01\xc1\x07\x8c\xae\xe9?'
p655
tp656
Rp657
aa(lp658
g28
(g32
S'*i\xb7u[\x15\xe5?'
p659
tp660
Rp661
aa(lp662
g28
(g32
S'e\x955am\x03\xe9?'
p663
tp664
Rp665
aa(lp666
g28
(g32
S'RP\xa9\x97\\\x9c\xe7?'
p667
tp668
Rp669
aa(lp670
g28
(g32
S'\x9d\xcdpT\xb8\xb5\xe9?'
p671
tp672
Rp673
aasg114
(lp674
(lp675
g28
(g32
S'\x00\x11\x12\xcd\x04\xad\xb7?'
p676
tp677
Rp678
aag675
a(lp679
g28
(g32
S'\xd5\xbe\xcbI\x9a\xb2\x17?'
p680
tp681
Rp682
aa(lp683
g28
(g32
S'C\xfa\xf5\x1d\xea\xc0\x9d?'
p684
tp685
Rp686
aa(lp687
g28
(g32
S'\x03(\xbfA!J\x9d?'
p688
tp689
Rp690
aa(lp691
g28
(g32
S'\x1d\xc7<\x9b\xd4\x9aV?'
p692
tp693
Rp694
aa(lp695
g28
(g32
S'\x1e\xa8\xbd\xc3\x1a\xb8\xa5?'
p696
tp697
Rp698
aa(lp699
g28
(g32
S'\xc7\x01\xf6\xf0\xdc8\x93?'
p700
tp701
Rp702
aa(lp703
g28
(g32
S'\x9d\x8e7$\x8d5\x8a?'
p704
tp705
Rp706
aa(lp707
g28
(g32
S'\xabc\xedm\xde\x91\xb6?'
p708
tp709
Rp710
aa(lp711
g28
(g32
S"\xd5\xbe\xcbI\x9a\xb2'?"
p712
tp713
Rp714
aa(lp715
g28
(g32
S'\xa9\xa1\x02\xae\x95:\xc0?'
p716
tp717
Rp718
aa(lp719
g28
(g32
S's\xbb\xc2)\x01\xe2\x9f?'
p720
tp721
Rp722
aa(lp723
g28
(g32
S'V\x19\xe3\xda)\x85\xa2?'
p724
tp725
Rp726
aa(lp727
g28
(g32
S'\x95\xd1\xb7\x848\x18\xa1?'
p728
tp729
Rp730
aa(lp731
g28
(g32
S"\xabR\xc6\xea\xd7'\xb5?"
p732
tp733
Rp734
aa(lp735
g28
(g32
S"\xd5\xbe\xcbI\x9a\xb2'?"
p736
tp737
Rp738
aa(lp739
g28
(g32
S'\x98\x1f\xca%\xaaG\x90?'
p740
tp741
Rp742
aa(lp743
g28
(g32
S'\xb8\x94\x0eq\xcd\x12l?'
p744
tp745
Rp746
aa(lp747
g28
(g32
S'\xed[\xde=D\xfa\xae?'
p748
tp749
Rp750
aa(lp751
g28
(g32
S'\x1d\xc7<\x9b\xd4\x9aV?'
p752
tp753
Rp754
aasg196
(lp755
F21.582847118377686
aF21.582847118377686
aF20.11690092086792
aF19.799548149108887
aF22.10464096069336
aF22.610859155654907
aF17.88762903213501
aF19.39306616783142
aF27.74266290664673
aF25.15354299545288
aF24.372616052627563
aF25.972075939178467
aF22.08432412147522
aF23.78686285018921
aF25.114887952804565
aF27.101041078567505
aF20.15159583091736
aF23.601857900619507
aF21.839876890182495
aF21.81113290786743
aF23.287802934646606
assS'M4'
p756
(dp757
g3
(lp758
(lp759
I115
aag759
a(lp760
I114
aa(lp761
I111
aa(lp762
I114
aa(lp763
I112
aa(lp764
I114
aa(lp765
I111
aa(lp766
I112
aa(lp767
I114
aa(lp768
I111
aa(lp769
I114
aa(lp770
I114
aa(lp771
I111
aa(lp772
I111
aa(lp773
I113
aa(lp774
I113
aa(lp775
I115
aa(lp776
I112
aa(lp777
I113
aa(lp778
I116
aasg25
(lp779
(lp780
g28
(g32
S'\xa9\x97\x8b\xfe\xcc\xdd\x89?'
p781
tp782
Rp783
aag780
a(lp784
g28
(g32
S'\x943Y\x0cV\x9e\x92?'
p785
tp786
Rp787
aa(lp788
g28
(g32
S'k\xcc&EJ\x89\x91?'
p789
tp790
Rp791
aa(lp792
g28
(g32
S'\x05\xa5\xb9d\x7f\x1a\x87?'
p793
tp794
Rp795
aa(lp796
g28
(g32
S'QSW\xcb\xfb=\x8b?'
p797
tp798
Rp799
aa(lp800
g28
(g32
S"['\xe1\xbd}\xdd\x83?"
p801
tp802
Rp803
aa(lp804
g28
(g32
S'\xee*\xce\x81`\x9b\x91?'
p805
tp806
Rp807
aa(lp808
g28
(g32
S'\xec\xec\xf2\x84\x0b\xaf\x82?'
p809
tp810
Rp811
aa(lp812
g28
(g32
S'\xf7\x14\xa1\xd4\xc5\x85\x89?'
p813
tp814
Rp815
aa(lp816
g28
(g32
S'Qv\xb2-{K\x8c?'
p817
tp818
Rp819
aa(lp820
g28
(g32
S'\x07\x7fv}\x8ey\x83?'
p821
tp822
Rp823
aa(lp824
g28
(g32
S'B/N\x16Q\x03\x85?'
p825
tp826
Rp827
aa(lp828
g28
(g32
S']kz\xc4\xd9]\x8f?'
p829
tp830
Rp831
aa(lp832
g28
(g32
S"4'\xbe\xca\x83>\x87?"
p833
tp834
Rp835
aa(lp836
g28
(g32
S'\xb8\xa10\n(\xfc\x8e?'
p837
tp838
Rp839
aa(lp840
g28
(g32
S'\x83\x91\xe4\x86\\\xa9\x84?'
p841
tp842
Rp843
aa(lp844
g28
(g32
S'\x80H0\xe3\xf8d\x8b?'
p845
tp846
Rp847
aa(lp848
g28
(g32
S's\xae\xd8\x83\x04\x91\x87?'
p849
tp850
Rp851
aa(lp852
g28
(g32
S'+\xf6\x02\x8c8"\x92?'
p853
tp854
Rp855
aa(lp856
g28
(g32
S'\xd7l/IY\xff\x81?'
p857
tp858
Rp859
aasg114
(lp860
(lp861
g28
(g32
S'\xe6U\xde\xa1\xdf\xc1i?'
p862
tp863
Rp864
aag861
a(lp865
g28
(g32
S'\x08LcMm0l?'
p866
tp867
Rp868
aa(lp869
g28
(g32
S'i\x8e\x93A\x10\xbbr?'
p870
tp871
Rp872
aa(lp873
g28
(g32
S'u\xc8\xcfz\xc5\x15p?'
p874
tp875
Rp876
aa(lp877
g28
(g32
S'\\\x98\xe2\xba(\xb6\x7f?'
p878
tp879
Rp880
aa(lp881
g28
(g32
S'\x82\xaaC\xae[^i?'
p882
tp883
Rp884
aa(lp885
g28
(g32
S'T\xf4\x83s\x9c\x02r?'
p886
tp887
Rp888
aa(lp889
g28
(g32
S'.\xa5#9\x1cCg?'
p890
tp891
Rp892
aa(lp893
g28
(g32
S'\n\xd4*\xe0\x83\x0bc?'
p894
tp895
Rp896
aa(lp897
g28
(g32
S'\xc8\x17z\x05\xc1\xefr?'
p898
tp899
Rp900
aa(lp901
g28
(g32
S'\xe8\xe6p6\xc1sr?'
p902
tp903
Rp904
aa(lp905
g28
(g32
S'\xa2\xcb\xd8\x99\xbdPy?'
p906
tp907
Rp908
aa(lp909
g28
(g32
S'\xb1[\xc6\x81\xcais?'
p910
tp911
Rp912
aa(lp913
g28
(g32
S'\x8c\x9eM/\xeb\xd6n?'
p914
tp915
Rp916
aa(lp917
g28
(g32
S'<\x8b\xce\x1e\xbf\xccc?'
p918
tp919
Rp920
aa(lp921
g28
(g32
S'\xe8\x11\xe5\xba\x9f\x1et?'
p922
tp923
Rp924
aa(lp925
g28
(g32
S'\xdc\x1f\x85\xcd5\xeau?'
p926
tp927
Rp928
aa(lp929
g28
(g32
S'\x9e\xef\x03\xba\xf6\xd7e?'
p930
tp931
Rp932
aa(lp933
g28
(g32
S'\xe92\x16\xe9\xb6$r?'
p934
tp935
Rp936
aa(lp937
g28
(g32
S'\x8bkI\x94\xa4\x10i?'
p938
tp939
Rp940
aasg196
(lp941
F30.888999938964844
aF30.888999938964844
aF30.941193103790283
aF30.63650608062744
aF33.3670871257782
aF31.520523071289062
aF32.16157507896423
aF33.963598012924194
aF31.910934925079346
aF29.465436935424805
aF30.551953077316284
aF29.6496798992157
aF34.68274903297424
aF34.75257587432861
aF35.29405999183655
aF30.347409963607788
aF31.411874055862427
aF31.63829016685486
aF28.14169216156006
aF33.15860295295715
aF33.84140181541443
assS'M1'
p942
(dp943
g3
(lp944
(lp945
I111
aag945
a(lp946
I114
aa(lp947
I113
aa(lp948
I114
aa(lp949
I112
aa(lp950
I112
aa(lp951
I112
aa(lp952
I111
aa(lp953
I113
aa(lp954
I113
aa(lp955
I112
aa(lp956
I112
aa(lp957
I111
aa(lp958
I112
aa(lp959
I111
aa(lp960
I113
aa(lp961
I113
aa(lp962
I111
aa(lp963
I113
aa(lp964
I114
aasg25
(lp965
(lp966
g28
(g32
S'2\xd9\x92\xf4\xe1\xf9\x87?'
p967
tp968
Rp969
aag966
a(lp970
g28
(g32
S'\x1f-\x0f7\x0c2\x85?'
p971
tp972
Rp973
aa(lp974
g28
(g32
S'\x1a\xbckG\xd7H\x91?'
p975
tp976
Rp977
aa(lp978
g28
(g32
S'\xec \xfas8\xbf\x93?'
p979
tp980
Rp981
aa(lp982
g28
(g32
S'f\xac\xe6y\x8f\xdf\x8c?'
p983
tp984
Rp985
aa(lp986
g28
(g32
S'Sz\tO\x1aw\x97?'
p987
tp988
Rp989
aa(lp990
g28
(g32
S'\xb2m\r0\xb0\x07\x84?'
p991
tp992
Rp993
aa(lp994
g28
(g32
S'\xc5\xc0\xf7\x1d\xc1\xdb\x8d?'
p995
tp996
Rp997
aa(lp998
g28
(g32
S'\xdd<S\xbb\x88W\x91?'
p999
tp1000
Rp1001
aa(lp1002
g28
(g32
S'\xc5ZdE\x99\xf1\x84?'
p1003
tp1004
Rp1005
aa(lp1006
g28
(g32
S'\xa8\x80\xa9(\x93\x82\x98?'
p1007
tp1008
Rp1009
aa(lp1010
g28
(g32
S'\xe4\xa9"U\n\xde\x8a?'
p1011
tp1012
Rp1013
aa(lp1014
g28
(g32
S'\xc2Q\x84}\xb5/\x87?'
p1015
tp1016
Rp1017
aa(lp1018
g28
(g32
S'/\xe3\x91\xd3\xab\x18\x92?'
p1019
tp1020
Rp1021
aa(lp1022
g28
(g32
S'\x08x\x96M\xc9\xb8\x88?'
p1023
tp1024
Rp1025
aa(lp1026
g28
(g32
S'\xad\x89\x12K\x89d\x8a?'
p1027
tp1028
Rp1029
aa(lp1030
g28
(g32
S'U\\\xbb\xb79\xc7\x8d?'
p1031
tp1032
Rp1033
aa(lp1034
g28
(g32
S'\x04C\xcd\xady\xab\x8d?'
p1035
tp1036
Rp1037
aa(lp1038
g28
(g32
S'\xdbE\xf3\x16\xc8\xb8\x8e?'
p1039
tp1040
Rp1041
aa(lp1042
g28
(g32
S'\xb6\xad\xd0\x80h\xd2\x9d?'
p1043
tp1044
Rp1045
aasg114
(lp1046
(lp1047
g28
(g32
S'\xf9\xecs;\xad\xe4z?'
p1048
tp1049
Rp1050
aag1047
a(lp1051
g28
(g32
S'ry|1j\xcew?'
p1052
tp1053
Rp1054
aa(lp1055
g28
(g32
S'c\xc6\xecy\x82\xbdx?'
p1056
tp1057
Rp1058
aa(lp1059
g28
(g32
S'\xd1\xe7\xe8\xc8Y-y?'
p1060
tp1061
Rp1062
aa(lp1063
g28
(g32
S'u\xf1\xb2p\xf4\x1e\x84?'
p1064
tp1065
Rp1066
aa(lp1067
g28
(g32
S'rJ?\xfa\x86\x1b\x7f?'
p1068
tp1069
Rp1070
aa(lp1071
g28
(g32
S'\xcax\xba\xbe\x1dSm?'
p1072
tp1073
Rp1074
aa(lp1075
g28
(g32
S'\xf1\xf3\r\xca\x91\x13s?'
p1076
tp1077
Rp1078
aa(lp1079
g28
(g32
S'=B\x96y\xdd\xcaw?'
p1080
tp1081
Rp1082
aa(lp1083
g28
(g32
S'\xd5\xcd\xaa\x1e\x84\xfay?'
p1084
tp1085
Rp1086
aa(lp1087
g28
(g32
S'\xe9\xaa\xf3\xbb\x8a~w?'
p1088
tp1089
Rp1090
aa(lp1091
g28
(g32
S'\x02\x18\xc15\xb6v\x7f?'
p1092
tp1093
Rp1094
aa(lp1095
g28
(g32
S'\xce\xfdx\xc0i\x88w?'
p1096
tp1097
Rp1098
aa(lp1099
g28
(g32
S'5\xd2[\xd7.\x1dp?'
p1100
tp1101
Rp1102
aa(lp1103
g28
(g32
S'_=y\xd9\xea\x9cv?'
p1104
tp1105
Rp1106
aa(lp1107
g28
(g32
S'\xa9\x18\xf9\x08\xd4K{?'
p1108
tp1109
Rp1110
aa(lp1111
g28
(g32
S's&S\x84\x06;\x85?'
p1112
tp1113
Rp1114
aa(lp1115
g28
(g32
S'\x98V!\xc4\x93\xd0t?'
p1116
tp1117
Rp1118
aa(lp1119
g28
(g32
S'\xf9\\,\xb7\xcda\x80?'
p1120
tp1121
Rp1122
aa(lp1123
g28
(g32
S'\xe6vr|\xb7$\x83?'
p1124
tp1125
Rp1126
aasg196
(lp1127
F41.962066888809204
aF41.962066888809204
aF38.5669481754303
aF40.002243995666504
aF35.03623604774475
aF41.53553318977356
aF38.41796803474426
aF36.85988998413086
aF33.013060092926025
aF37.39461088180542
aF35.53086996078491
aF39.385128021240234
aF32.28680896759033
aF40.49332809448242
aF32.124117851257324
aF36.41876196861267
aF35.559181213378906
aF35.35234808921814
aF40.59940791130066
aF40.030616998672485
aF39.96788501739502
assS'M3'
p1128
(dp1129
g3
(lp1130
(lp1131
I113
aag1131
a(lp1132
I113
aa(lp1133
I113
aa(lp1134
I112
aa(lp1135
I111
aa(lp1136
I111
aa(lp1137
I112
aa(lp1138
I111
aa(lp1139
I114
aa(lp1140
I111
aa(lp1141
I117
aa(lp1142
I114
aa(lp1143
I112
aa(lp1144
I112
aa(lp1145
I112
aa(lp1146
I112
aa(lp1147
I111
aa(lp1148
I111
aa(lp1149
I112
aa(lp1150
I111
aasg25
(lp1151
(lp1152
g28
(g32
S'v\xde\xbe\xf8-\x99\x90?'
p1153
tp1154
Rp1155
aag1152
a(lp1156
g28
(g32
S'\xd6|\xcb\xb1\x9b4\x89?'
p1157
tp1158
Rp1159
aa(lp1160
g28
(g32
S']\xb6\x13}w\xf7\x82?'
p1161
tp1162
Rp1163
aa(lp1164
g28
(g32
S'\xa0C~J\x1e\x98\x96?'
p1165
tp1166
Rp1167
aa(lp1168
g28
(g32
S'\x1aE\xa9\xbd \x11\x95?'
p1169
tp1170
Rp1171
aa(lp1172
g28
(g32
S'D\xb7\x8fCi\x12~?'
p1173
tp1174
Rp1175
aa(lp1176
g28
(g32
S'>\xec\x89\xa6\x9bS\x8c?'
p1177
tp1178
Rp1179
aa(lp1180
g28
(g32
S'g\xbb\x98w?\xee\x84?'
p1181
tp1182
Rp1183
aa(lp1184
g28
(g32
S'\xecr`<.?\x89?'
p1185
tp1186
Rp1187
aa(lp1188
g28
(g32
S'w\xed\x0cf\xbeC\xa1?'
p1189
tp1190
Rp1191
aa(lp1192
g28
(g32
S'\x0b\xc5\xc2\x8cO8\x96?'
p1193
tp1194
Rp1195
aa(lp1196
g28
(g32
S'\xfc\xa8\x0e\xb5\xc6\xb2\x8f?'
p1197
tp1198
Rp1199
aa(lp1200
g28
(g32
S'\xb3\xcc \x1c\xad\x91\x85?'
p1201
tp1202
Rp1203
aa(lp1204
g28
(g32
S'\x9c0;B\xfc\x07\x8b?'
p1205
tp1206
Rp1207
aa(lp1208
g28
(g32
S'\xdd\xd8\x0c\x17)_\x83?'
p1209
tp1210
Rp1211
aa(lp1212
g28
(g32
S'p\xca3\x9e\x7f\xd1\x82?'
p1213
tp1214
Rp1215
aa(lp1216
g28
(g32
S'\xec^\x93d,\x93\x92?'
p1217
tp1218
Rp1219
aa(lp1220
g28
(g32
S'\x00^4b\x95(\x9a?'
p1221
tp1222
Rp1223
aa(lp1224
g28
(g32
S'\xf0\x00\xf2xx\x04\x93?'
p1225
tp1226
Rp1227
aa(lp1228
g28
(g32
S'\xcfa\xa9\x89u\xa6\x89?'
p1229
tp1230
Rp1231
aasg114
(lp1232
(lp1233
g28
(g32
S'+\x80u<\x98\x0fq?'
p1234
tp1235
Rp1236
aag1233
a(lp1237
g28
(g32
S'\xe6_s(\xa7\xf1u?'
p1238
tp1239
Rp1240
aa(lp1241
g28
(g32
S'v\xdc{\xcdq\x8bl?'
p1242
tp1243
Rp1244
aa(lp1245
g28
(g32
S'\xabQ\x7f} \xdeh?'
p1246
tp1247
Rp1248
aa(lp1249
g28
(g32
S'\xe8\x95m\x03\xd9hp?'
p1250
tp1251
Rp1252
aa(lp1253
g28
(g32
S'\xd8svtbKo?'
p1254
tp1255
Rp1256
aa(lp1257
g28
(g32
S'^\xce\xa2\xa4g\xd0\x81?'
p1258
tp1259
Rp1260
aa(lp1261
g28
(g32
S'\xd7\xfa\xa2\xe0\xce\x1cv?'
p1262
tp1263
Rp1264
aa(lp1265
g28
(g32
S'\xe3\xc1Mt\x8b\xf9r?'
p1266
tp1267
Rp1268
aa(lp1269
g28
(g32
S'\x0b\xe0?!C\xc0q?'
p1270
tp1271
Rp1272
aa(lp1273
g28
(g32
S'\x97\xfei@j\x1cq?'
p1274
tp1275
Rp1276
aa(lp1277
g28
(g32
S'\x1b:\xb8:\xeb\x08l?'
p1278
tp1279
Rp1280
aa(lp1281
g28
(g32
S'\xaa\xa4%\xd8\xb6Ku?'
p1282
tp1283
Rp1284
aa(lp1285
g28
(g32
S'\x06o\x9ca1\xd2m?'
p1286
tp1287
Rp1288
aa(lp1289
g28
(g32
S'\x1d+s\x05(\xf9s?'
p1290
tp1291
Rp1292
aa(lp1293
g28
(g32
S"^\xabB\xbf7'q?"
p1294
tp1295
Rp1296
aa(lp1297
g28
(g32
S'h;\x01\x87pGu?'
p1298
tp1299
Rp1300
aa(lp1301
g28
(g32
S'\x11\x9b\xcb-\xbf v?'
p1302
tp1303
Rp1304
aa(lp1305
g28
(g32
S'=$\xe0\xafz\xe6t?'
p1306
tp1307
Rp1308
aa(lp1309
g28
(g32
S'W\xa0=o\x95\x1cr?'
p1310
tp1311
Rp1312
aasg196
(lp1313
F35.74818181991577
aF35.74818181991577
aF37.026124000549316
aF33.21316599845886
aF34.886828899383545
aF27.159920930862427
aF35.187702894210815
aF39.174968957901
aF41.65250611305237
aF34.8193461894989
aF34.546704053878784
aF32.632293939590454
aF33.63039994239807
aF31.507996082305908
aF33.94737792015076
aF30.42391586303711
aF31.897795915603638
aF32.412516832351685
aF33.29049897193909
aF37.10972595214844
aF38.812844038009644
assS'M2'
p1314
(dp1315
g3
(lp1316
(lp1317
I111
aag1317
a(lp1318
I112
aa(lp1319
I116
aa(lp1320
I111
aa(lp1321
I111
aa(lp1322
I111
aa(lp1323
I115
aa(lp1324
I113
aa(lp1325
I114
aa(lp1326
I115
aa(lp1327
I114
aa(lp1328
I113
aa(lp1329
I113
aa(lp1330
I113
aa(lp1331
I111
aa(lp1332
I112
aa(lp1333
I113
aa(lp1334
I112
aa(lp1335
I113
aa(lp1336
I113
aasg25
(lp1337
(lp1338
g28
(g32
S'C{c\xd4\xf4\xd1\x84?'
p1339
tp1340
Rp1341
aag1338
a(lp1342
g28
(g32
S'\x84\xa3\x06jz\xe9\x89?'
p1343
tp1344
Rp1345
aa(lp1346
g28
(g32
S'bQ\x8a\xd9b\xa8}?'
p1347
tp1348
Rp1349
aa(lp1350
g28
(g32
S'T\xb5\x1c\x89j\xd5\x84?'
p1351
tp1352
Rp1353
aa(lp1354
g28
(g32
S'\x16\xf6\xe0!c\x06\x80?'
p1355
tp1356
Rp1357
aa(lp1358
g28
(g32
S'\n\x91\x98TV\x8d\x86?'
p1359
tp1360
Rp1361
aa(lp1362
g28
(g32
S'\xf4\x81\rD\xba\xbb\x81?'
p1363
tp1364
Rp1365
aa(lp1366
g28
(g32
S'\xa7\xcd\x86i\xf7\x83\x84?'
p1367
tp1368
Rp1369
aa(lp1370
g28
(g32
S'\xc1\xdc\xc5\xc8\xa8\x14\x7f?'
p1371
tp1372
Rp1373
aa(lp1374
g28
(g32
S'\x18\xae)E\xed\xab\x83?'
p1375
tp1376
Rp1377
aa(lp1378
g28
(g32
S'\xe50&#\xb0@\x80?'
p1379
tp1380
Rp1381
aa(lp1382
g28
(g32
S'\xa9\xdf\xe5\x0e=j\x84?'
p1383
tp1384
Rp1385
aa(lp1386
g28
(g32
S'C\x19L\xb2\t\x91\x7f?'
p1387
tp1388
Rp1389
aa(lp1390
g28
(g32
S'!\xc0\xb0?\xa0\xdcy?'
p1391
tp1392
Rp1393
aa(lp1394
g28
(g32
S'\xb0\xd0\x14\x06\xd9Q~?'
p1395
tp1396
Rp1397
aa(lp1398
g28
(g32
S'\x0e\x1d\x89\xb2\xb9\xd6\x81?'
p1399
tp1400
Rp1401
aa(lp1402
g28
(g32
S'qn\x7f\xc6\x16]\x81?'
p1403
tp1404
Rp1405
aa(lp1406
g28
(g32
S'M#\x97B\xd7\x1a\x81?'
p1407
tp1408
Rp1409
aa(lp1410
g28
(g32
S'\n\xcfn5 O\x81?'
p1411
tp1412
Rp1413
aa(lp1414
g28
(g32
S'\xd9.\xfdSM{\x81?'
p1415
tp1416
Rp1417
aasg114
(lp1418
(lp1419
g28
(g32
S'\xb2\x9e\xc2\x7f\x0ck\x80?'
p1420
tp1421
Rp1422
aag1419
a(lp1423
g28
(g32
S'\x89\x9a.\xb9\xac\x9fb?'
p1424
tp1425
Rp1426
aa(lp1427
g28
(g32
S'\xff_\xa4\xe3Lgk?'
p1428
tp1429
Rp1430
aa(lp1431
g28
(g32
S'\xa2\xa2\xf6O\xc8\xd2j?'
p1432
tp1433
Rp1434
aa(lp1435
g28
(g32
S'\xdc\x85\xff\x1d\xb7\xcej?'
p1436
tp1437
Rp1438
aa(lp1439
g28
(g32
S'\xa9\xaf\xbd\xd2\x9a\x96m?'
p1440
tp1441
Rp1442
aa(lp1443
g28
(g32
S'Q\x9d\x06\xb5\xe1\x9fr?'
p1444
tp1445
Rp1446
aa(lp1447
g28
(g32
S'\x82\x88\x88\x9b\x9d\x13r?'
p1448
tp1449
Rp1450
aa(lp1451
g28
(g32
S'%\x87.\xe6\xe6\xb3m?'
p1452
tp1453
Rp1454
aa(lp1455
g28
(g32
S'\x8e\xf9\xae\x15\r\xf8k?'
p1456
tp1457
Rp1458
aa(lp1459
g28
(g32
S'\x7f\x85\xe8\x15+Lv?'
p1460
tp1461
Rp1462
aa(lp1463
g28
(g32
S'Z*\xd0\xc9~1v?'
p1464
tp1465
Rp1466
aa(lp1467
g28
(g32
S'\x9a\xda\x7f;\xc0Wp?'
p1468
tp1469
Rp1470
aa(lp1471
g28
(g32
S'\x82 \xaaM\x1d\x81w?'
p1472
tp1473
Rp1474
aa(lp1475
g28
(g32
S'}i~5\xa9\xb0d?'
p1476
tp1477
Rp1478
aa(lp1479
g28
(g32
S'\x07\xf1\xf6\x89\x05\xcar?'
p1480
tp1481
Rp1482
aa(lp1483
g28
(g32
S'gO\xfa\xfa\x19\xa2i?'
p1484
tp1485
Rp1486
aa(lp1487
g28
(g32
S'ca\x14\xfd\x15?r?'
p1488
tp1489
Rp1490
aa(lp1491
g28
(g32
S'\xb4\xe4\x987\x06\xfbm?'
p1492
tp1493
Rp1494
aa(lp1495
g28
(g32
S'{\xa5\xc0\x89\xd5\xb5s?'
p1496
tp1497
Rp1498
aasg196
(lp1499
F33.38921093940735
aF33.38921093940735
aF32.24966788291931
aF35.21353006362915
aF36.20578598976135
aF30.710557222366333
aF31.99008584022522
aF33.62108516693115
aF37.47097992897034
aF35.18423891067505
aF32.98658800125122
aF36.21775507926941
aF33.30850791931152
aF36.710721015930176
aF33.372960805892944
aF35.036497831344604
aF31.117477893829346
aF35.33437204360962
aF32.221067905426025
aF33.48330593109131
aF38.98382306098938
assS'X2'
p1500
(dp1501
g3
(lp1502
(lp1503
I113
aag1503
a(lp1504
I114
aa(lp1505
I112
aa(lp1506
I114
aa(lp1507
I114
aa(lp1508
I113
aa(lp1509
I114
aa(lp1510
I112
aa(lp1511
I115
aa(lp1512
I113
aa(lp1513
I113
aa(lp1514
I114
aa(lp1515
I111
aa(lp1516
I115
aa(lp1517
I111
aa(lp1518
I111
aa(lp1519
I111
aa(lp1520
I115
aa(lp1521
I116
aa(lp1522
I113
aasg25
(lp1523
(lp1524
g28
(g32
S'\x96\x04B\x89\x81C\x97?'
p1525
tp1526
Rp1527
aag1524
a(lp1528
g28
(g32
S'6\xd9\xcb0\x93\xc0\x84?'
p1529
tp1530
Rp1531
aa(lp1532
g28
(g32
S'6\xb2I\t\x1c\xb3\x95?'
p1533
tp1534
Rp1535
aa(lp1536
g28
(g32
S'\xba\x11O#\xc2\x94\x8a?'
p1537
tp1538
Rp1539
aa(lp1540
g28
(g32
S'\xea\x9d.\xfe\xeb\xcbm?'
p1541
tp1542
Rp1543
aa(lp1544
g28
(g32
S'\x82\xeey`j\x8d\x8c?'
p1545
tp1546
Rp1547
aa(lp1548
g28
(g32
S'[\xa0\x9d\xcc\xe7\x8b\x9d?'
p1549
tp1550
Rp1551
aa(lp1552
g28
(g32
S'\x9aF\xba\x9c@j\x80?'
p1553
tp1554
Rp1555
aa(lp1556
g28
(g32
S'I\x99T \x0e\xd5\x85?'
p1557
tp1558
Rp1559
aa(lp1560
g28
(g32
S'\xc7\xdeR)\xe4\xff\x83?'
p1561
tp1562
Rp1563
aa(lp1564
g28
(g32
S'\xdb\x85t\x80\t\xc5}?'
p1565
tp1566
Rp1567
aa(lp1568
g28
(g32
S'$\xb8\xab\rU\xa7\x90?'
p1569
tp1570
Rp1571
aa(lp1572
g28
(g32
S'vQG\x9d\xd8k\x95?'
p1573
tp1574
Rp1575
aa(lp1576
g28
(g32
S'A\xe2\xca\xb7]\x1c\x95?'
p1577
tp1578
Rp1579
aa(lp1580
g28
(g32
S'\xe2\x8f\x81c\xb2\xe3\x91?'
p1581
tp1582
Rp1583
aa(lp1584
g28
(g32
S'\xb0\xc3\x84\xe5\xd6\t\x9b?'
p1585
tp1586
Rp1587
aa(lp1588
g28
(g32
S'\x10]\x8b\xc0`\x9c\xa8?'
p1589
tp1590
Rp1591
aa(lp1592
g28
(g32
S'\x80H\x04$\xcfP\x94?'
p1593
tp1594
Rp1595
aa(lp1596
g28
(g32
S'^\xaa\n?e.\x8c?'
p1597
tp1598
Rp1599
aa(lp1600
g28
(g32
S'@\x99\x83\x03A\xfe\x84?'
p1601
tp1602
Rp1603
aasg114
(lp1604
(lp1605
g28
(g32
S'M}\xc1\xbfl\x1a\xa8?'
p1606
tp1607
Rp1608
aag1605
a(lp1609
g28
(g32
S'"L\xfe\xc5#Dy?'
p1610
tp1611
Rp1612
aa(lp1613
g28
(g32
S'Q\xde\x01\xca\xec\xc7\xa3?'
p1614
tp1615
Rp1616
aa(lp1617
g28
(g32
S'\xb9\x7f3\xa6n\xd9\xa3?'
p1618
tp1619
Rp1620
aa(lp1621
g28
(g32
S'\x81\rfQ\xa8\x91v?'
p1622
tp1623
Rp1624
aa(lp1625
g28
(g32
S'\xd8\x8d\xc4\xa1L\xd6\x98?'
p1626
tp1627
Rp1628
aa(lp1629
g28
(g32
S'"\x97\xcez\x08\xbd\x84?'
p1630
tp1631
Rp1632
aa(lp1633
g28
(g32
S'\x80\xc36\xd58\xf6\x91?'
p1634
tp1635
Rp1636
aa(lp1637
g28
(g32
S'\xf1\xdcBO\x9c\xba\x81?'
p1638
tp1639
Rp1640
aa(lp1641
g28
(g32
S'6Vr\x06\x01\x11\xb1?'
p1642
tp1643
Rp1644
aa(lp1645
g28
(g32
S'\x8d~\xbd\xdf\xa8\xc5~?'
p1646
tp1647
Rp1648
aa(lp1649
g28
(g32
S'o\xda\x7f\xbd(\xde\x8b?'
p1650
tp1651
Rp1652
aa(lp1653
g28
(g32
S'\x12I\xc9\xb6\xdb\xea\x8f?'
p1654
tp1655
Rp1656
aa(lp1657
g28
(g32
S'.^E\xaa=b\x9d?'
p1658
tp1659
Rp1660
aa(lp1661
g28
(g32
S'H~\xef\xad\x15\x8c{?'
p1662
tp1663
Rp1664
aa(lp1665
g28
(g32
S'\xd6R\xeb\x10E\x9d\x81?'
p1666
tp1667
Rp1668
aa(lp1669
g28
(g32
S'/H\xa6Hg.\xe8>'
p1670
tp1671
Rp1672
aa(lp1673
g28
(g32
S'\xaf\xe5*&\xcbK\x9d?'
p1674
tp1675
Rp1676
aa(lp1677
g28
(g32
S'\xd6\xfe\xbd(\xef)\x85?'
p1678
tp1679
Rp1680
aa(lp1681
g28
(g32
S'\xe0\x01r5\xff\xc9\x8f?'
p1682
tp1683
Rp1684
aasg196
(lp1685
F22.485848903656006
aF22.485848903656006
aF25.562882900238037
aF25.891808032989502
aF14.849348068237305
aF23.809508085250854
aF23.752046823501587
aF18.93706512451172
aF23.899888038635254
aF20.848587036132812
aF23.433784008026123
aF19.924910068511963
aF17.09874701499939
aF23.602113008499146
aF22.21419882774353
aF23.96290612220764
aF21.093250036239624
aF16.55576491355896
aF21.265394926071167
aF22.643030881881714
aF19.666090965270996
assS'X3'
p1686
(dp1687
g3
(lp1688
(lp1689
I113
aag1689
a(lp1690
I112
aa(lp1691
I116
aa(lp1692
I114
aa(lp1693
I114
aa(lp1694
I113
aa(lp1695
I114
aa(lp1696
I111
aa(lp1697
I113
aa(lp1698
I112
aa(lp1699
I114
aa(lp1700
I113
aa(lp1701
I114
aa(lp1702
I111
aa(lp1703
I113
aa(lp1704
I111
aa(lp1705
I114
aa(lp1706
I112
aa(lp1707
I112
aa(lp1708
I113
aasg25
(lp1709
(lp1710
g28
(g32
S'=\xa9H\x14n\xb9x?'
p1711
tp1712
Rp1713
aag1710
a(lp1714
g28
(g32
S'\x0bU\x8d\xbd\xd6\x18\x81?'
p1715
tp1716
Rp1717
aa(lp1718
g28
(g32
S'\xe4\x07\xe9dy\xf8\x83?'
p1719
tp1720
Rp1721
aa(lp1722
g28
(g32
S'e\xdcxn\xcbJf?'
p1723
tp1724
Rp1725
aa(lp1726
g28
(g32
S'\x1f\xce\n\xa47Qh?'
p1727
tp1728
Rp1729
aa(lp1730
g28
(g32
S'A\xee\x9f\xc7\x80Gy?'
p1731
tp1732
Rp1733
aa(lp1734
g28
(g32
S'\xf1l\xc9\x02d\xfey?'
p1735
tp1736
Rp1737
aa(lp1738
g28
(g32
S'\x91\xc8\xcaW\x14Nu?'
p1739
tp1740
Rp1741
aa(lp1742
g28
(g32
S'\xf1\xed\xe17\xb4\x96s?'
p1743
tp1744
Rp1745
aa(lp1746
g28
(g32
S'\xc1!\xad4~\tw?'
p1747
tp1748
Rp1749
aa(lp1750
g28
(g32
S'GL\xb4?\x89?q?'
p1751
tp1752
Rp1753
aa(lp1754
g28
(g32
S'\xf9(|\xdaW[m?'
p1755
tp1756
Rp1757
aa(lp1758
g28
(g32
S'\xa6W\x05\x92\xb8\x8ft?'
p1759
tp1760
Rp1761
aa(lp1762
g28
(g32
S'wb\xad\x08x?t?'
p1763
tp1764
Rp1765
aa(lp1766
g28
(g32
S'\xe3\xb6\xe1\x12\x8b\x8at?'
p1767
tp1768
Rp1769
aa(lp1770
g28
(g32
S'\n\x9b\x8fNY\x93\x84?'
p1771
tp1772
Rp1773
aa(lp1774
g28
(g32
S'\x81\x04\x0f\x9a\x1fVy?'
p1775
tp1776
Rp1777
aa(lp1778
g28
(g32
S'o6\x19\xa4\x89\x9b{?'
p1779
tp1780
Rp1781
aa(lp1782
g28
(g32
S'\x01\xff\x93\x9d\x90\x84{?'
p1783
tp1784
Rp1785
aa(lp1786
g28
(g32
S'-\xd5\x9a2Vhk?'
p1787
tp1788
Rp1789
aasg114
(lp1790
(lp1791
g28
(g32
S'\xeb4\x9f\x8b\x1e;N?'
p1792
tp1793
Rp1794
aag1791
a(lp1795
g28
(g32
S'@\xe3\xaaH8\xcd\x84?'
p1796
tp1797
Rp1798
aa(lp1799
g28
(g32
S'U\x8b\xe3\xc5\xf7\x01q?'
p1800
tp1801
Rp1802
aa(lp1803
g28
(g32
S'\xa0\xc7\xda\x85\xb1F\x1e?'
p1804
tp1805
Rp1806
aa(lp1807
g28
(g32
S'\x94\xa7\x1f\xb4\xed\x90|?'
p1808
tp1809
Rp1810
aa(lp1811
g28
(g32
S'$\xf4\xb4\xa33 {?'
p1812
tp1813
Rp1814
aa(lp1815
g28
(g32
S'\x96\x92\xc3\xa3|\x13>?'
p1816
tp1817
Rp1818
aa(lp1819
g28
(g32
S'\xcf(\xfbht\x03\x91?'
p1820
tp1821
Rp1822
aa(lp1823
g28
(g32
S'=\xba)S#\x01\x81?'
p1824
tp1825
Rp1826
aa(lp1827
g28
(g32
S'h\x8f\xa0Z-\xf6\xa3?'
p1828
tp1829
Rp1830
aa(lp1831
g28
(g32
S"~'Y\xa5\xdf\xff\x81?"
p1832
tp1833
Rp1834
aa(lp1835
g28
(g32
S'C]\x95D\xc3h(?'
p1836
tp1837
Rp1838
aa(lp1839
g28
(g32
S'tg\xcd\xe0\x80\x87\x8f?'
p1840
tp1841
Rp1842
aa(lp1843
g28
(g32
S'H\xbb\x9d\x93\xf5\xaey?'
p1844
tp1845
Rp1846
aa(lp1847
g28
(g32
S'i\xae\xca\xc14\xce\x89?'
p1848
tp1849
Rp1850
aa(lp1851
g28
(g32
S'p\x91\xe2\x0b\xea\xa0\xa8?'
p1852
tp1853
Rp1854
aa(lp1855
g28
(g32
S'\xebj\xe7\x918\xe6v?'
p1856
tp1857
Rp1858
aa(lp1859
g28
(g32
S'\x97\xdb\x9f\x97\xb9\x94y?'
p1860
tp1861
Rp1862
aa(lp1863
g28
(g32
S'\x1c!\xc0[\xe1\xb4\x88?'
p1864
tp1865
Rp1866
aa(lp1867
g28
(g32
S'\x98\xbc\xcb\xf3A6c?'
p1868
tp1869
Rp1870
aasg196
(lp1871
F25.02469491958618
aF25.02469491958618
aF24.64113712310791
aF20.442893981933594
aF26.22134518623352
aF20.46544599533081
aF23.18117880821228
aF24.31526207923889
aF20.91476607322693
aF20.515033960342407
aF20.752782106399536
aF20.140849113464355
aF20.813061952590942
aF19.243841886520386
aF22.083313941955566
aF19.811967849731445
aF19.553838968276978
aF23.22966504096985
aF20.91642189025879
aF17.681287050247192
aF25.7490451335907
assS'X1'
p1872
(dp1873
g3
(lp1874
(lp1875
I112
aag1875
a(lp1876
I112
aa(lp1877
I111
aa(lp1878
I111
aa(lp1879
I111
aa(lp1880
I112
aa(lp1881
I112
aa(lp1882
I111
aa(lp1883
I111
aa(lp1884
I112
aa(lp1885
I113
aa(lp1886
I112
aa(lp1887
I113
aa(lp1888
I113
aa(lp1889
I112
aa(lp1890
I115
aa(lp1891
I111
aa(lp1892
I113
aa(lp1893
I114
aa(lp1894
I115
aasg25
(lp1895
(lp1896
g28
(g32
S'\x9b\xb0\xfdHCpi?'
p1897
tp1898
Rp1899
aag1896
a(lp1900
g28
(g32
S'\xa23\xbb\x06\x99\x00\x84?'
p1901
tp1902
Rp1903
aa(lp1904
g28
(g32
S'g\xa9\xf3\xe9-\xe8r?'
p1905
tp1906
Rp1907
aa(lp1908
g28
(g32
S'\xac5uE\x16\xcal?'
p1909
tp1910
Rp1911
aa(lp1912
g28
(g32
S'\x04\x04&5\x97\xba~?'
p1913
tp1914
Rp1915
aa(lp1916
g28
(g32
S';\x00\xa8\xc5\xac;}?'
p1917
tp1918
Rp1919
aa(lp1920
g28
(g32
S';\x99\x02TbS\x89?'
p1921
tp1922
Rp1923
aa(lp1924
g28
(g32
S'\xb9]\x82D$r\x97?'
p1925
tp1926
Rp1927
aa(lp1928
g28
(g32
S'?\xc2\xcc\x11)\x1d\x90?'
p1929
tp1930
Rp1931
aa(lp1932
g28
(g32
S'\xb2\xc7\xda\x7f \xc9\x82?'
p1933
tp1934
Rp1935
aa(lp1936
g28
(g32
S'\xe8\xff\xd2J\x1eri?'
p1937
tp1938
Rp1939
aa(lp1940
g28
(g32
S'\x9bW\xa0e\xc94\x8b?'
p1941
tp1942
Rp1943
aa(lp1944
g28
(g32
S'j\xc6\x1aQ\x8b\xcez?'
p1945
tp1946
Rp1947
aa(lp1948
g28
(g32
S'\xe0\\F \xd0({?'
p1949
tp1950
Rp1951
aa(lp1952
g28
(g32
S'\xed\x84\xbd\xbe^?\x8a?'
p1953
tp1954
Rp1955
aa(lp1956
g28
(g32
S'W\xd3cHBrw?'
p1957
tp1958
Rp1959
aa(lp1960
g28
(g32
S'\xdbFeJA\xcc\x8c?'
p1961
tp1962
Rp1963
aa(lp1964
g28
(g32
S'\xc9\x85\x0f\xb1\x05m}?'
p1965
tp1966
Rp1967
aa(lp1968
g28
(g32
S'\xd7\xec<\x0c\x14\xf7\x8d?'
p1969
tp1970
Rp1971
aa(lp1972
g28
(g32
S'\xf2\x0b\xb8\xe4-wz?'
p1973
tp1974
Rp1975
aasg114
(lp1976
(lp1977
g28
(g32
S'\xe4\x0f\x9d\x1b\xad9\x90?'
p1978
tp1979
Rp1980
aag1977
a(lp1981
g28
(g32
S'\xdf\x00\x04\xca\xa9\xdf\xa4?'
p1982
tp1983
Rp1984
aa(lp1985
g28
(g32
S'\xee\xf6\x05`\x00\x0f\xae?'
p1986
tp1987
Rp1988
aa(lp1989
g28
(g32
S'\x91s\xb5\xb1\xd9\x1a\x96?'
p1990
tp1991
Rp1992
aa(lp1993
g28
(g32
S'\xaf\xd4^\x15\xb5|\x85?'
p1994
tp1995
Rp1996
aa(lp1997
g28
(g32
S'r\xfav\xe6\xe4\xb2\x95?'
p1998
tp1999
Rp2000
aa(lp2001
g28
(g32
S'\xcb\x95d\xf1\xba#\xa4?'
p2002
tp2003
Rp2004
aa(lp2005
g28
(g32
S'\x08Os\xfc\x97\xcb\xab?'
p2006
tp2007
Rp2008
aa(lp2009
g28
(g32
S'A\x97\xe8\rg\x95\xa7?'
p2010
tp2011
Rp2012
aa(lp2013
g28
(g32
S'\xc0\xc2\xd2"\xc4o\x95?'
p2014
tp2015
Rp2016
aa(lp2017
g28
(g32
S'\xea5\xf51a+\xa0?'
p2018
tp2019
Rp2020
aa(lp2021
g28
(g32
S'\x163\x1e\x01#6\xaf?'
p2022
tp2023
Rp2024
aa(lp2025
g28
(g32
S'#\xe0%La\xd7\xa6?'
p2026
tp2027
Rp2028
aa(lp2029
g28
(g32
S'\x82g\xed:\x07i\x91?'
p2030
tp2031
Rp2032
aa(lp2033
g28
(g32
S'\xa3?\xcf\x89XK\x93?'
p2034
tp2035
Rp2036
aa(lp2037
g28
(g32
S'\xa0\xd6\xab\x18\xf1so?'
p2038
tp2039
Rp2040
aa(lp2041
g28
(g32
S'\xe9\xaf\xbf\x9b7\x9d\x8b?'
p2042
tp2043
Rp2044
aa(lp2045
g28
(g32
S'\x7f\xa6|\xa2\x1c\xc3\xa2?'
p2046
tp2047
Rp2048
aa(lp2049
g28
(g32
S'\xa5\x17\xb1P\x81I\x81?'
p2050
tp2051
Rp2052
aa(lp2053
g28
(g32
S'kF\xe2>T\xd3\x9e?'
p2054
tp2055
Rp2056
aasg196
(lp2057
F24.90657901763916
aF24.90657901763916
aF25.43751096725464
aF22.334187030792236
aF22.026612043380737
aF25.69320321083069
aF23.959195137023926
aF20.460664987564087
aF23.158259868621826
aF20.49281883239746
aF18.161205053329468
aF20.20585298538208
aF21.516407012939453
aF20.71434187889099
aF24.802435874938965
aF22.26429295539856
aF23.065419912338257
aF20.8194899559021
aF17.821459770202637
aF22.966308116912842
aF24.431105136871338
assS'X4'
p2058
(dp2059
g3
(lp2060
(lp2061
I114
aag2061
a(lp2062
I111
aa(lp2063
I111
aa(lp2064
I115
aa(lp2065
I112
aa(lp2066
I112
aa(lp2067
I111
aa(lp2068
I114
aa(lp2069
I111
aa(lp2070
I111
aa(lp2071
I113
aa(lp2072
I112
aa(lp2073
I111
aa(lp2074
I111
aa(lp2075
I116
aa(lp2076
I111
aa(lp2077
I112
aa(lp2078
I113
aa(lp2079
I112
aa(lp2080
I112
aasg25
(lp2081
(lp2082
g28
(g32
S';\xcd\x02\xef#\x90\x88?'
p2083
tp2084
Rp2085
aag2082
a(lp2086
g28
(g32
S'D\xba\x1b\x0e\xcdO\x88?'
p2087
tp2088
Rp2089
aa(lp2090
g28
(g32
S'\xa3\xfbn\xf7\xfbB|?'
p2091
tp2092
Rp2093
aa(lp2094
g28
(g32
S'&~\xed3m\x92\x92?'
p2095
tp2096
Rp2097
aa(lp2098
g28
(g32
S'<\xdd\x14\x83\xc9^\x8c?'
p2099
tp2100
Rp2101
aa(lp2102
g28
(g32
S':hw\x99\x8d:\x89?'
p2103
tp2104
Rp2105
aa(lp2106
g28
(g32
S'i\xa8\xcb\xc5\xbcU\x7f?'
p2107
tp2108
Rp2109
aa(lp2110
g28
(g32
S'\xb8\x18\xd5\x9c\x95,\x84?'
p2111
tp2112
Rp2113
aa(lp2114
g28
(g32
S'\xc8^\xcf\xa5&\x87\x80?'
p2115
tp2116
Rp2117
aa(lp2118
g28
(g32
S'p\x9dQ\x0b\n\xff\x90?'
p2119
tp2120
Rp2121
aa(lp2122
g28
(g32
S'5\x92{\xc808|?'
p2123
tp2124
Rp2125
aa(lp2126
g28
(g32
S'\x9dz\xc2SzD{?'
p2127
tp2128
Rp2129
aa(lp2130
g28
(g32
S'?\r\xdb\xdc\xe4\x9e\x81?'
p2131
tp2132
Rp2133
aa(lp2134
g28
(g32
S'=\xd9\xde+\x07\xf0\x88?'
p2135
tp2136
Rp2137
aa(lp2138
g28
(g32
S'\xa4c\x81\x18\x99_\x83?'
p2139
tp2140
Rp2141
aa(lp2142
g28
(g32
S'ZFja\xb7\x89\x87?'
p2143
tp2144
Rp2145
aa(lp2146
g28
(g32
S'\xdc\xf4\xea,\xa4\x12\x85?'
p2147
tp2148
Rp2149
aa(lp2150
g28
(g32
S'y7\xe6Pk\xac\x8c?'
p2151
tp2152
Rp2153
aa(lp2154
g28
(g32
S'a^C\xf7\x7fDt?'
p2155
tp2156
Rp2157
aa(lp2158
g28
(g32
S'=jxF\xabB\x8d?'
p2159
tp2160
Rp2161
aasg114
(lp2162
(lp2163
g28
(g32
S' \xe0\xcb\xcf\x94 \xa1?'
p2164
tp2165
Rp2166
aag2163
a(lp2167
g28
(g32
S'\t\xfd\xa1\xaa\x0b^\xaa?'
p2168
tp2169
Rp2170
aa(lp2171
g28
(g32
S'p\tvW\xdd\xb7r?'
p2172
tp2173
Rp2174
aa(lp2175
g28
(g32
S'9\xfa\xb3)\x18\xda\x9c?'
p2176
tp2177
Rp2178
aa(lp2179
g28
(g32
S'\x1dy\xb1\xfc%q\x7f?'
p2180
tp2181
Rp2182
aa(lp2183
g28
(g32
S'v\xcb\x9f6\xc9m\xaa?'
p2184
tp2185
Rp2186
aa(lp2187
g28
(g32
S'\xda\xa4\r[?m\x92?'
p2188
tp2189
Rp2190
aa(lp2191
g28
(g32
S'-Q(\x93\xd2?\x8d?'
p2192
tp2193
Rp2194
aa(lp2195
g28
(g32
S'\xe1\x9d\x10\x1bK\xe6\x91?'
p2196
tp2197
Rp2198
aa(lp2199
g28
(g32
S'\x1d@bm\xb2<\xa9?'
p2200
tp2201
Rp2202
aa(lp2203
g28
(g32
S'\xb1\xe8\x80$1\xb5\x98?'
p2204
tp2205
Rp2206
aa(lp2207
g28
(g32
S'\xe5\x05t1x\x04\x82?'
p2208
tp2209
Rp2210
aa(lp2211
g28
(g32
S'\x84\x1a\xd0\xc0\xae6\xb9?'
p2212
tp2213
Rp2214
aa(lp2215
g28
(g32
S'\x15o\x94\x10\xc1d\x9d?'
p2216
tp2217
Rp2218
aa(lp2219
g28
(g32
S'\x8c\xc1\x1d\x14\x81=\xa2?'
p2220
tp2221
Rp2222
aa(lp2223
g28
(g32
S'\x99\xc7\xc3\x88\x81\xdc\xa6?'
p2224
tp2225
Rp2226
aa(lp2227
g28
(g32
S'A\xde\x1e\xc9\x9d\xc5\xa2?'
p2228
tp2229
Rp2230
aa(lp2231
g28
(g32
S'\xa3\x93\x9b\xff\xaa?{?'
p2232
tp2233
Rp2234
aa(lp2235
g28
(g32
S'\x8c\x88H0>}M?'
p2236
tp2237
Rp2238
aa(lp2239
g28
(g32
S'VsE\x929\xbc\x9e?'
p2240
tp2241
Rp2242
aasg196
(lp2243
F23.350204944610596
aF23.350204944610596
aF18.91580581665039
aF18.860618114471436
aF19.769093990325928
aF21.371230840682983
aF21.79252791404724
aF20.897434949874878
aF19.841135025024414
aF20.71333599090576
aF21.24901008605957
aF18.11793303489685
aF23.99832510948181
aF15.935418128967285
aF25.608411073684692
aF20.728153944015503
aF25.63173198699951
aF24.189749002456665
aF19.259984016418457
aF21.72440004348755
aF22.204622983932495
assS'X5'
p2244
(dp2245
g3
(lp2246
(lp2247
I111
aag2247
a(lp2248
I115
aa(lp2249
I112
aa(lp2250
I114
aa(lp2251
I116
aa(lp2252
I115
aa(lp2253
I112
aa(lp2254
I111
aa(lp2255
I111
aa(lp2256
I113
aa(lp2257
I113
aa(lp2258
I112
aa(lp2259
I113
aa(lp2260
I112
aa(lp2261
I112
aa(lp2262
I111
aa(lp2263
I117
aa(lp2264
I115
aa(lp2265
I112
aa(lp2266
I112
aasg25
(lp2267
(lp2268
g28
(g32
S'\xf8\x06\x99\x1a\xce\xd6\x91?'
p2269
tp2270
Rp2271
aag2268
a(lp2272
g28
(g32
S'\xd4/\xa5\x90\xf9\x02\x94?'
p2273
tp2274
Rp2275
aa(lp2276
g28
(g32
S'\x98\xfde-\xa6\x1d}?'
p2277
tp2278
Rp2279
aa(lp2280
g28
(g32
S'\xd2\x05\xec\xa0\x85\xff\x80?'
p2281
tp2282
Rp2283
aa(lp2284
g28
(g32
S'\xc6\xbf\xf1\xd2q{\x7f?'
p2285
tp2286
Rp2287
aa(lp2288
g28
(g32
S'\xfd\x92}\xc8\xf9_\x8c?'
p2289
tp2290
Rp2291
aa(lp2292
g28
(g32
S'\x1d\x07N\x0e\xc9%\x93?'
p2293
tp2294
Rp2295
aa(lp2296
g28
(g32
S"=\xc7Q\xa4\x08'~?"
p2297
tp2298
Rp2299
aa(lp2300
g28
(g32
S'`\xa4\xb3\rh\xf1r?'
p2301
tp2302
Rp2303
aa(lp2304
g28
(g32
S'\xa81\x18-G\xd0j?'
p2305
tp2306
Rp2307
aa(lp2308
g28
(g32
S'C^8\xde\xe7\xb3\x90?'
p2309
tp2310
Rp2311
aa(lp2312
g28
(g32
S'\xbcrQ\x19\x1c\\\x83?'
p2313
tp2314
Rp2315
aa(lp2316
g28
(g32
S'\x8e@pV\xfe\xf6\x89?'
p2317
tp2318
Rp2319
aa(lp2320
g28
(g32
S'\xacW`XD\xf7\x88?'
p2321
tp2322
Rp2323
aa(lp2324
g28
(g32
S'\xf9\xfc\x89\x15\xa5kS?'
p2325
tp2326
Rp2327
aa(lp2328
g28
(g32
S'\xb0\x17,\xbb2T\x8d?'
p2329
tp2330
Rp2331
aa(lp2332
g28
(g32
S'\xb8\x8c>\xea\x16P\x91?'
p2333
tp2334
Rp2335
aa(lp2336
g28
(g32
S'\xe0U\r\xe37\xea\x90?'
p2337
tp2338
Rp2339
aa(lp2340
g28
(g32
S'\x11\xb7PYR2o?'
p2341
tp2342
Rp2343
aa(lp2344
g28
(g32
S'\xda>E\xc0\xcb9\x8e?'
p2345
tp2346
Rp2347
aasg114
(lp2348
(lp2349
g28
(g32
S'\xa8\xe3\xb2\xc3v\xb4\xa1?'
p2350
tp2351
Rp2352
aag2349
a(lp2353
g28
(g32
S"l'\x88CK8\xa3?"
p2354
tp2355
Rp2356
aa(lp2357
g28
(g32
S'\x9a\x13\xd4<\xc5q}?'
p2358
tp2359
Rp2360
aa(lp2361
g28
(g32
S'\x08\xf3\xff\xa2\xbf\xeb\x8c?'
p2362
tp2363
Rp2364
aa(lp2365
g28
(g32
S'G^\x10\xf7\xeb\x9c\x8c?'
p2366
tp2367
Rp2368
aa(lp2369
g28
(g32
S'\xa4h\xa9@\xbe\x9e\xa2?'
p2370
tp2371
Rp2372
aa(lp2373
g28
(g32
S'\x0f&r\x89\xe6\xc8b?'
p2374
tp2375
Rp2376
aa(lp2377
g28
(g32
S'\xdb\x17T\xaa\r\x96\x99?'
p2378
tp2379
Rp2380
aa(lp2381
g28
(g32
S'\xc9\xba\xd1\xe8\x812\x9b?'
p2382
tp2383
Rp2384
aa(lp2385
g28
(g32
S'\xc4\xcax,\xa5.\xa1?'
p2386
tp2387
Rp2388
aa(lp2389
g28
(g32
S',\xcfK\xdf\xebT\xa5?'
p2390
tp2391
Rp2392
aa(lp2393
g28
(g32
S'\x8e\xb0\xa0)\x8aW\xb3?'
p2394
tp2395
Rp2396
aa(lp2397
g28
(g32
S'\x02\x8eJ \xaaz\x92?'
p2398
tp2399
Rp2400
aa(lp2401
g28
(g32
S'V%jD^\x97\xb3?'
p2402
tp2403
Rp2404
aa(lp2405
g28
(g32
S'\x89\x05/\xf4\xb9Q&?'
p2406
tp2407
Rp2408
aa(lp2409
g28
(g32
S'<+_\x93,\x92\xa4?'
p2410
tp2411
Rp2412
aa(lp2413
g28
(g32
S'$\xa3\x0c\xb9\\\x19\xa7?'
p2414
tp2415
Rp2416
aa(lp2417
g28
(g32
S'\xaf\x99\xdf\xab\xa9y\x9b?'
p2418
tp2419
Rp2420
aa(lp2421
g28
(g32
S'\xe1\x009\xcf\xb63\x94?'
p2422
tp2423
Rp2424
aa(lp2425
g28
(g32
S'-E<}\x0eO\x96?'
p2426
tp2427
Rp2428
aasg196
(lp2429
F24.33231806755066
aF24.33231806755066
aF20.982597827911377
aF19.046555995941162
aF22.648130178451538
aF19.443551063537598
aF18.617857933044434
aF23.408639907836914
aF23.070554971694946
aF22.78301191329956
aF23.890126943588257
aF20.525389909744263
aF22.594758987426758
aF21.914305925369263
aF18.169892072677612
aF17.69666814804077
aF21.131212949752808
aF16.750805854797363
aF18.115778923034668
aF16.734879970550537
aF18.50115704536438
ass.