(dp0
S'M2'
p1
(dp2
S'evals'
p3
(lp4
I113
asS'igd'
p5
(lp6
cnumpy.core.multiarray
scalar
p7
(cnumpy
dtype
p8
(S'f8'
p9
I0
I1
tp10
Rp11
(I3
S'<'
p12
NNNI-1
I-1
I0
tp13
bS'\xa7\xcd\x86i\xf7\x83\x84?'
p14
tp15
Rp16
asS'gen_dist'
p17
(lp18
g7
(g11
S'\x82\x88\x88\x9b\x9d\x13r?'
p19
tp20
Rp21
asS'time'
p22
F37.47097992897034
ss.