(dp0
S'P3'
p1
(dp2
S'evals'
p3
(lp4
I114
asS'igd'
p5
(lp6
cnumpy.core.multiarray
scalar
p7
(cnumpy
dtype
p8
(S'f8'
p9
I0
I1
tp10
Rp11
(I3
S'<'
p12
NNNI-1
I-1
I0
tp13
bS'|\x84\xdf\x03\xa8\x01\xac?'
p14
tp15
Rp16
asS'gen_dist'
p17
(lp18
g7
(g11
S'\x81\x9bkv\x1c\x12j?'
p19
tp20
Rp21
asS'time'
p22
F17.818397998809814
ss.