(dp0
S'X3'
p1
(dp2
S'evals'
p3
(lp4
I113
asS'igd'
p5
(lp6
cnumpy.core.multiarray
scalar
p7
(cnumpy
dtype
p8
(S'f8'
p9
I0
I1
tp10
Rp11
(I3
S'<'
p12
NNNI-1
I-1
I0
tp13
bS'\xe3\xb6\xe1\x12\x8b\x8at?'
p14
tp15
Rp16
asS'gen_dist'
p17
(lp18
g7
(g11
S'i\xae\xca\xc14\xce\x89?'
p19
tp20
Rp21
asS'time'
p22
F19.811967849731445
ss.