(dp0
S'X5'
p1
(dp2
S'evals'
p3
(lp4
I116
asS'igd'
p5
(lp6
cnumpy.core.multiarray
scalar
p7
(cnumpy
dtype
p8
(S'f8'
p9
I0
I1
tp10
Rp11
(I3
S'<'
p12
NNNI-1
I-1
I0
tp13
bS'\xc6\xbf\xf1\xd2q{\x7f?'
p14
tp15
Rp16
asS'gen_dist'
p17
(lp18
g7
(g11
S'G^\x10\xf7\xeb\x9c\x8c?'
p19
tp20
Rp21
asS'time'
p22
F19.443551063537598
ss.