(dp0
S'M1'
p1
(dp2
S'evals'
p3
(lp4
I33
asS'igd'
p5
(lp6
cnumpy.core.multiarray
scalar
p7
(cnumpy
dtype
p8
(S'f8'
p9
I0
I1
tp10
Rp11
(I3
S'<'
p12
NNNI-1
I-1
I0
tp13
bS'-\x180\xd0\xe1k\xa0?'
p14
tp15
Rp16
asS'gen_dist'
p17
(lp18
g7
(g11
S'\x83\x1f\xef\x9e\x92\xd5\x8a?'
p19
tp20
Rp21
asS'time'
p22
F17.167882919311523
ss.