(dp0
S'P1'
p1
(dp2
S'evals'
p3
(lp4
I33
asS'igd'
p5
(lp6
cnumpy.core.multiarray
scalar
p7
(cnumpy
dtype
p8
(S'f8'
p9
I0
I1
tp10
Rp11
(I3
S'<'
p12
NNNI-1
I-1
I0
tp13
bS'V\xe7\xa6\xf9\xe2\xc7\xa9?'
p14
tp15
Rp16
asS'gen_dist'
p17
(lp18
g7
(g11
S'Q\x96\x19\x1f\xcc\xa2\x8d?'
p19
tp20
Rp21
asS'time'
p22
F3.4650909900665283
ss.