(dp0
S'P1'
p1
(dp2
S'evals'
p3
(lp4
I31
asS'igd'
p5
(lp6
cnumpy.core.multiarray
scalar
p7
(cnumpy
dtype
p8
(S'f8'
p9
I0
I1
tp10
Rp11
(I3
S'<'
p12
NNNI-1
I-1
I0
tp13
bS'O\xc7\x95\xd9\xb5\xea\x93?'
p14
tp15
Rp16
asS'gen_dist'
p17
(lp18
g7
(g11
S'\xd9CPz\xca\xc5\x97?'
p19
tp20
Rp21
asS'time'
p22
F3.35922908782959
ss.