(dp0
S'P3'
p1
(dp2
S'evals'
p3
(lp4
I33
asS'igd'
p5
(lp6
cnumpy.core.multiarray
scalar
p7
(cnumpy
dtype
p8
(S'f8'
p9
I0
I1
tp10
Rp11
(I3
S'<'
p12
NNNI-1
I-1
I0
tp13
bS'P\x13\xfb\x1b\x07\x03\xb1?'
p14
tp15
Rp16
asS'gen_dist'
p17
(lp18
g7
(g11
S'"aV5\xc75\xb0?'
p19
tp20
Rp21
asS'time'
p22
F4.84177303314209
ss.