(dp0
S'X3'
p1
(dp2
S'evals'
p3
(lp4
I32
asS'igd'
p5
(lp6
cnumpy.core.multiarray
scalar
p7
(cnumpy
dtype
p8
(S'f8'
p9
I0
I1
tp10
Rp11
(I3
S'<'
p12
NNNI-1
I-1
I0
tp13
bS'\x1f\x95\xf8\x1b\xa7\x80\x8c?'
p14
tp15
Rp16
asS'gen_dist'
p17
(lp18
g7
(g11
S'\xa2\x96\xf5\xa5\x17E\x9b?'
p19
tp20
Rp21
asS'time'
p22
F4.576949834823608
ss.