(dp0
S'P1'
p1
(dp2
S'evals'
p3
(lp4
I92
asS'igd'
p5
(lp6
cnumpy.core.multiarray
scalar
p7
(cnumpy
dtype
p8
(S'f8'
p9
I0
I1
tp10
Rp11
(I3
S'<'
p12
NNNI-1
I-1
I0
tp13
bS'\x15\xda\x7fN\x90\x07\xa3?'
p14
tp15
Rp16
asS'gen_dist'
p17
(lp18
g7
(g11
S'x\x87\xc1\xe8\xbb\x14\x8c?'
p19
tp20
Rp21
asS'time'
p22
F18.594188928604126
ss.