(dp0
S'X2'
p1
(dp2
S'evals'
p3
(lp4
I97
asS'igd'
p5
(lp6
cnumpy.core.multiarray
scalar
p7
(cnumpy
dtype
p8
(S'f8'
p9
I0
I1
tp10
Rp11
(I3
S'<'
p12
NNNI-1
I-1
I0
tp13
bS'\xd3ZU(\xa2\xf0\x8a?'
p14
tp15
Rp16
asS'gen_dist'
p17
(lp18
g7
(g11
S'\xa6\x08\x8c\xe8\xac\x89\x9d?'
p19
tp20
Rp21
asS'time'
p22
F17.241197109222412
ss.