(dp0
S'X2'
p1
(dp2
S'evals'
p3
(lp4
I93
asS'igd'
p5
(lp6
cnumpy.core.multiarray
scalar
p7
(cnumpy
dtype
p8
(S'f8'
p9
I0
I1
tp10
Rp11
(I3
S'<'
p12
NNNI-1
I-1
I0
tp13
bS'<%\x7f\xe8\x8d\xe3\xa8?'
p14
tp15
Rp16
asS'gen_dist'
p17
(lp18
g7
(g11
S'^E\x05\xb3\xf3.\x16?'
p19
tp20
Rp21
asS'time'
p22
F17.70730209350586
ss.