(dp0
S'P1'
p1
(dp2
S'evals'
p3
(lp4
I94
asS'igd'
p5
(lp6
cnumpy.core.multiarray
scalar
p7
(cnumpy
dtype
p8
(S'f8'
p9
I0
I1
tp10
Rp11
(I3
S'<'
p12
NNNI-1
I-1
I0
tp13
bS'\xd2\r\xc0B\r\xe3\x92?'
p14
tp15
Rp16
asS'gen_dist'
p17
(lp18
g7
(g11
S'\xde\x0c\xa2\xc7\xd0\xaf\x80?'
p19
tp20
Rp21
asS'time'
p22
F16.090023040771484
ss.