(dp0
S'X2'
p1
(dp2
S'evals'
p3
(lp4
I92
asS'igd'
p5
(lp6
cnumpy.core.multiarray
scalar
p7
(cnumpy
dtype
p8
(S'f8'
p9
I0
I1
tp10
Rp11
(I3
S'<'
p12
NNNI-1
I-1
I0
tp13
bS'b\xcay\x90\x9b\r\x8a?'
p14
tp15
Rp16
asS'gen_dist'
p17
(lp18
g7
(g11
S'\xed\x9d\x97N\x03z\xa4?'
p19
tp20
Rp21
asS'time'
p22
F20.218253135681152
ss.