(dp0
S'X3'
p1
(dp2
S'evals'
p3
(lp4
I93
asS'igd'
p5
(lp6
cnumpy.core.multiarray
scalar
p7
(cnumpy
dtype
p8
(S'f8'
p9
I0
I1
tp10
Rp11
(I3
S'<'
p12
NNNI-1
I-1
I0
tp13
bS'\xc1\xb0\xc5qm\x91o?'
p14
tp15
Rp16
asS'gen_dist'
p17
(lp18
g7
(g11
S'\x0b\xd3\x1d\xfb\x0b\xe2\x81?'
p19
tp20
Rp21
asS'time'
p22
F17.890721082687378
ss.