(dp0
S'M4'
p1
(dp2
S'evals'
p3
(lp4
I94
asS'igd'
p5
(lp6
cnumpy.core.multiarray
scalar
p7
(cnumpy
dtype
p8
(S'f8'
p9
I0
I1
tp10
Rp11
(I3
S'<'
p12
NNNI-1
I-1
I0
tp13
bS'3\xd3H%\xa5\x07\x86?'
p14
tp15
Rp16
asS'gen_dist'
p17
(lp18
g7
(g11
S',A\xc3\xa8.\x8at?'
p19
tp20
Rp21
asS'time'
p22
F25.64130187034607
ss.