(dp0
S'P1'
p1
(dp2
S'evals'
p3
(lp4
I92
asS'igd'
p5
(lp6
cnumpy.core.multiarray
scalar
p7
(cnumpy
dtype
p8
(S'f8'
p9
I0
I1
tp10
Rp11
(I3
S'<'
p12
NNNI-1
I-1
I0
tp13
bS'\xaa2\x1f}\xf0t\xa7?'
p14
tp15
Rp16
asS'gen_dist'
p17
(lp18
g7
(g11
S'\xb5\x7f\x10\x93\xa6\xe3\x91?'
p19
tp20
Rp21
asS'time'
p22
F17.514973878860474
ss.