(dp0
S'P4'
p1
(dp2
S'evals'
p3
(lp4
I92
asS'igd'
p5
(lp6
cnumpy.core.multiarray
scalar
p7
(cnumpy
dtype
p8
(S'f8'
p9
I0
I1
tp10
Rp11
(I3
S'<'
p12
NNNI-1
I-1
I0
tp13
bS'P\xb8\xee\xc0\x10\x06\xe8?'
p14
tp15
Rp16
asS'gen_dist'
p17
(lp18
g7
(g11
S'A\\\x13\xe6\xb1\x1b\xb3?'
p19
tp20
Rp21
asS'time'
p22
F21.16828680038452
ss.