(dp0
S'P4'
p1
(dp2
S'evals'
p3
(lp4
I91
asS'igd'
p5
(lp6
cnumpy.core.multiarray
scalar
p7
(cnumpy
dtype
p8
(S'f8'
p9
I0
I1
tp10
Rp11
(I3
S'<'
p12
NNNI-1
I-1
I0
tp13
bS'9\xd3\x1b\x94j\x19\xe9?'
p14
tp15
Rp16
asS'gen_dist'
p17
(lp18
g7
(g11
S'\x12;\xe2*\x0e\xe0d?'
p19
tp20
Rp21
asS'time'
p22
F14.49400782585144
ss.