(dp0
S'X2'
p1
(dp2
S'evals'
p3
(lp4
I94
asS'igd'
p5
(lp6
cnumpy.core.multiarray
scalar
p7
(cnumpy
dtype
p8
(S'f8'
p9
I0
I1
tp10
Rp11
(I3
S'<'
p12
NNNI-1
I-1
I0
tp13
bS'\xe2\xe6\t;e\x06\x92?'
p14
tp15
Rp16
asS'gen_dist'
p17
(lp18
g7
(g11
S'\x00\xf4\xdd\r\x0b\xd8\x84?'
p19
tp20
Rp21
asS'time'
p22
F17.482810974121094
ss.