(dp0
S'X2'
p1
(dp2
S'evals'
p3
(lp4
I94
asS'igd'
p5
(lp6
cnumpy.core.multiarray
scalar
p7
(cnumpy
dtype
p8
(S'f8'
p9
I0
I1
tp10
Rp11
(I3
S'<'
p12
NNNI-1
I-1
I0
tp13
bS'\x92\x9b\xd8\xef\x1c\x92\x90?'
p14
tp15
Rp16
asS'gen_dist'
p17
(lp18
g7
(g11
S'\xa9\xb1\xfd\x0b\x93\x13\xbb?'
p19
tp20
Rp21
asS'time'
p22
F14.689041137695312
ss.