(dp0
S'X2'
p1
(dp2
S'evals'
p3
(lp4
I92
asS'igd'
p5
(lp6
cnumpy.core.multiarray
scalar
p7
(cnumpy
dtype
p8
(S'f8'
p9
I0
I1
tp10
Rp11
(I3
S'<'
p12
NNNI-1
I-1
I0
tp13
bS'\x9bL\t\x0e.\xa1\x7f?'
p14
tp15
Rp16
asS'gen_dist'
p17
(lp18
g7
(g11
S'\xb3\x12\xb3\x06\x92L\xa5?'
p19
tp20
Rp21
asS'time'
p22
F13.487099170684814
ss.