(dp0
S'M3'
p1
(dp2
S'evals'
p3
(lp4
I52
asS'igd'
p5
(lp6
cnumpy.core.multiarray
scalar
p7
(cnumpy
dtype
p8
(S'f8'
p9
I0
I1
tp10
Rp11
(I3
S'<'
p12
NNNI-1
I-1
I0
tp13
bS'FR\x06\xb0\xa2\x1a\xb1?'
p14
tp15
Rp16
asS'gen_dist'
p17
(lp18
g7
(g11
S'\x1a \xa2&\xdf[~?'
p19
tp20
Rp21
asS'time'
p22
F23.706462144851685
ss.