(dp0
S'P1'
p1
(dp2
S'evals'
p3
(lp4
I53
asS'igd'
p5
(lp6
cnumpy.core.multiarray
scalar
p7
(cnumpy
dtype
p8
(S'f8'
p9
I0
I1
tp10
Rp11
(I3
S'<'
p12
NNNI-1
I-1
I0
tp13
bS'l|\xe0\x8b\xb1\x97\x8a?'
p14
tp15
Rp16
asS'gen_dist'
p17
(lp18
g7
(g11
S'\xf0+$\xa1\x9d]\x85?'
p19
tp20
Rp21
asS'time'
p22
F9.016438007354736
ss.