(dp0
S'P3'
p1
(dp2
S'evals'
p3
(lp4
I51
asS'igd'
p5
(lp6
cnumpy.core.multiarray
scalar
p7
(cnumpy
dtype
p8
(S'f8'
p9
I0
I1
tp10
Rp11
(I3
S'<'
p12
NNNI-1
I-1
I0
tp13
bS'\xad\xb1\xd5\x15\xff\xc4\xa8?'
p14
tp15
Rp16
asS'gen_dist'
p17
(lp18
g7
(g11
S'\xc1\x93F\xfd\x8f\x83\xa0?'
p19
tp20
Rp21
asS'time'
p22
F10.243144989013672
ss.