(dp0
S'X1'
p1
(dp2
S'evals'
p3
(lp4
I53
asS'igd'
p5
(lp6
cnumpy.core.multiarray
scalar
p7
(cnumpy
dtype
p8
(S'f8'
p9
I0
I1
tp10
Rp11
(I3
S'<'
p12
NNNI-1
I-1
I0
tp13
bS'\x8b:\xaf\xc9\xdbMd?'
p14
tp15
Rp16
asS'gen_dist'
p17
(lp18
g7
(g11
S'\x05\x87G\x85g\xd0\xa3?'
p19
tp20
Rp21
asS'time'
p22
F9.715853929519653
ss.