(dp0
S'X4'
p1
(dp2
S'evals'
p3
(lp4
I54
asS'igd'
p5
(lp6
cnumpy.core.multiarray
scalar
p7
(cnumpy
dtype
p8
(S'f8'
p9
I0
I1
tp10
Rp11
(I3
S'<'
p12
NNNI-1
I-1
I0
tp13
bS'\xd3\xfb\xcdg\xdb\x0f\x93?'
p14
tp15
Rp16
asS'gen_dist'
p17
(lp18
g7
(g11
S'`\xe6A\x8cD\x92\xac?'
p19
tp20
Rp21
asS'time'
p22
F10.23135495185852
ss.