(dp0
S'P2'
p1
(dp2
S'evals'
p3
(lp4
(lp5
I93
aag5
a(lp6
I91
aa(lp7
I94
aa(lp8
I94
aa(lp9
I94
aa(lp10
I91
aa(lp11
I93
aa(lp12
I91
aa(lp13
I92
aa(lp14
I93
aa(lp15
I92
aa(lp16
I91
aa(lp17
I94
aa(lp18
I91
aa(lp19
I91
aa(lp20
I91
aa(lp21
I95
aa(lp22
I94
aa(lp23
I94
aa(lp24
I94
aasS'igd'
p25
(lp26
(lp27
cnumpy.core.multiarray
scalar
p28
(cnumpy
dtype
p29
(S'f8'
p30
I0
I1
tp31
Rp32
(I3
S'<'
p33
NNNI-1
I-1
I0
tp34
bS"\xcev 0r'\xcf?"
p35
tp36
Rp37
aag27
a(lp38
g28
(g32
S'@\xee\xe2\x83\xba\x84\xd3?'
p39
tp40
Rp41
aa(lp42
g28
(g32
S'-\xff\x8c\x8cm\xb9\xd1?'
p43
tp44
Rp45
aa(lp46
g28
(g32
S'\xa2\x92\x80\x96.f\xd1?'
p47
tp48
Rp49
aa(lp50
g28
(g32
S'i\x08W;\xa8\xe8\xd2?'
p51
tp52
Rp53
aa(lp54
g28
(g32
S'\xca\x16\xaf}\xfc\xcd\xbd?'
p55
tp56
Rp57
aa(lp58
g28
(g32
S'\x1d\xd2V^\x14n\xad?'
p59
tp60
Rp61
aa(lp62
g28
(g32
S'p\xf3_\xae\x1d\x15\xbe?'
p63
tp64
Rp65
aa(lp66
g28
(g32
S'\xcdI\x02\x90\xf0"\xcc?'
p67
tp68
Rp69
aa(lp70
g28
(g32
S'|R\x9f\xd0Mx\xd2?'
p71
tp72
Rp73
aa(lp74
g28
(g32
S'\x02\xb6\x0e8\xaf{\xcf?'
p75
tp76
Rp77
aa(lp78
g28
(g32
S'\xc5\xf1\x98\xc7V\xd7\xd0?'
p79
tp80
Rp81
aa(lp82
g28
(g32
S'\xbe\xf4z\xba\xc4\xb9\xd1?'
p83
tp84
Rp85
aa(lp86
g28
(g32
S'@\x001B\x8ea\x9f?'
p87
tp88
Rp89
aa(lp90
g28
(g32
S'\xf2W\xad=\xa4\x8f\xc1?'
p91
tp92
Rp93
aa(lp94
g28
(g32
S'\x11>O\x16J\xc1\xd0?'
p95
tp96
Rp97
aa(lp98
g28
(g32
S',73\x96\x07\xb4\xd1?'
p99
tp100
Rp101
aa(lp102
g28
(g32
S'\xc6\x18|\xf7?\x0e\xd3?'
p103
tp104
Rp105
aa(lp106
g28
(g32
S',73\x96\x07\xb4\xd1?'
p107
tp108
Rp109
aa(lp110
g28
(g32
S'\x12\x8a%}\xf5E\xd2?'
p111
tp112
Rp113
aasS'gen_dist'
p114
(lp115
(lp116
g28
(g32
S'\xbb\xc5\x89\xedos\xc8?'
p117
tp118
Rp119
aag116
a(lp120
g28
(g32
S'\x8c\x1b\xf3\xef\x1c\xc1\xbf?'
p121
tp122
Rp123
aa(lp124
g28
(g32
S'\xf0\xe7\xc6``U\xcc?'
p125
tp126
Rp127
aa(lp128
g28
(g32
S'\xae^\xf4m\xbf\xe3\xb5?'
p129
tp130
Rp131
aa(lp132
g28
(g32
S'\x17]o\x0eX\xd7\xd0?'
p133
tp134
Rp135
aa(lp136
g28
(g32
S'\x9f,e\xe9\x01\t\xc0?'
p137
tp138
Rp139
aa(lp140
g28
(g32
S'/\xa5\xa4\xdd/\x19\xc5?'
p141
tp142
Rp143
aa(lp144
g28
(g32
S'f\xfc:\xe1+\x99\xc5?'
p145
tp146
Rp147
aa(lp148
g28
(g32
S'\x9b\x83\xe3M\xfeS\xc2?'
p149
tp150
Rp151
aa(lp152
g28
(g32
S'9\r\xbc\x9f\xe0p\xc3?'
p153
tp154
Rp155
aa(lp156
g28
(g32
S'"4\xf5\xe9\x03|\xcf?'
p157
tp158
Rp159
aa(lp160
g28
(g32
S'S\xac\x1aV\x1b\xb5\xc9?'
p161
tp162
Rp163
aa(lp164
g28
(g32
S'\x1e\xff.e\xdd_\xcb?'
p165
tp166
Rp167
aa(lp168
g28
(g32
S'OK\xd3\x11\xa7\x02\xb9?'
p169
tp170
Rp171
aa(lp172
g28
(g32
S'\xce2hk\x1a\x1e\xcd?'
p173
tp174
Rp175
aa(lp176
g28
(g32
S'\x82\xb0g\x96\xa5\xcb\xcc?'
p177
tp178
Rp179
aa(lp180
g28
(g32
S'\xabY\x19\xfe\xc4\xae\xc0?'
p181
tp182
Rp183
aa(lp184
g28
(g32
S'\r\xc0\xab|\xf5R\xc1?'
p185
tp186
Rp187
aa(lp188
g28
(g32
S'\x13?\x9d\xa3M\xd9p?'
p189
tp190
Rp191
aa(lp192
g28
(g32
S'\xb0\xc8\x857\x01W\xc4?'
p193
tp194
Rp195
aasS'time'
p196
(lp197
F19.5470130443573
aF19.5470130443573
aF18.457138061523438
aF15.243168830871582
aF15.931014060974121
aF16.781550884246826
aF16.127828121185303
aF14.861145973205566
aF16.49764609336853
aF17.1268789768219
aF19.73293685913086
aF13.474953889846802
aF18.596521139144897
aF16.329102039337158
aF16.031630039215088
aF15.287993907928467
aF19.30812907218933
aF14.211974859237671
aF19.617478847503662
aF16.842654943466187
aF14.560934066772461
assS'P3'
p198
(dp199
g3
(lp200
(lp201
I98
aag201
a(lp202
I94
aa(lp203
I92
aa(lp204
I91
aa(lp205
I94
aa(lp206
I91
aa(lp207
I91
aa(lp208
I91
aa(lp209
I91
aa(lp210
I94
aa(lp211
I92
aa(lp212
I96
aa(lp213
I91
aa(lp214
I95
aa(lp215
I91
aa(lp216
I91
aa(lp217
I92
aa(lp218
I93
aa(lp219
I92
aa(lp220
I94
aasg25
(lp221
(lp222
g28
(g32
S'T\xb0\r\x81\x99v\xb1?'
p223
tp224
Rp225
aag222
a(lp226
g28
(g32
S'\x01\xe8\x17\xc20\xba\xa5?'
p227
tp228
Rp229
aa(lp230
g28
(g32
S'\xbbj\x0f\xfd\xbc:\xb0?'
p231
tp232
Rp233
aa(lp234
g28
(g32
S'\xc6\xb0\xeePs\xc6\xa2?'
p235
tp236
Rp237
aa(lp238
g28
(g32
S'\xe7\xad\xa4\x19\x11\x84\xb0?'
p239
tp240
Rp241
aa(lp242
g28
(g32
S'\xd2\xee^\xfc5\xb7\xa5?'
p243
tp244
Rp245
aa(lp246
g28
(g32
S'\x08\xf7\r\xb4\x19+\xa4?'
p247
tp248
Rp249
aa(lp250
g28
(g32
S'\x00\xe9I\x9a\x8b\xcc\xb2?'
p251
tp252
Rp253
aa(lp254
g28
(g32
S'\xc0\xb5\xe3\xda\xe1R\xad?'
p255
tp256
Rp257
aa(lp258
g28
(g32
S'\xc4\xf4Q\xb4s\xf3\x99?'
p259
tp260
Rp261
aa(lp262
g28
(g32
S'@d\xedi\x88\xd5\xa1?'
p263
tp264
Rp265
aa(lp266
g28
(g32
S')\x12l\x9bN\xd4\xb1?'
p267
tp268
Rp269
aa(lp270
g28
(g32
S'\xac\xb1\xfc\xe9\x17\xd7\x9f?'
p271
tp272
Rp273
aa(lp274
g28
(g32
S'\xf0y{gqr\xb0?'
p275
tp276
Rp277
aa(lp278
g28
(g32
S'`\x90\x14\xb7+\xdd\x9d?'
p279
tp280
Rp281
aa(lp282
g28
(g32
S'\xc5\xe3\xb1\x19\xf1\x1b\xb1?'
p283
tp284
Rp285
aa(lp286
g28
(g32
S'\x8b8zC\n\t\xb2?'
p287
tp288
Rp289
aa(lp290
g28
(g32
S'1\x05\x00\xd2\xef\x05\xb0?'
p291
tp292
Rp293
aa(lp294
g28
(g32
S'gO\x17\xeb\xccd\xb3?'
p295
tp296
Rp297
aa(lp298
g28
(g32
S'6\xe5$\x0b\xb2v\xb3?'
p299
tp300
Rp301
aasg114
(lp302
(lp303
g28
(g32
S'\xde\x93Y\xf9\x98\xfb\x7f?'
p304
tp305
Rp306
aag303
a(lp307
g28
(g32
S'u(Q]\xab\xf8\x90?'
p308
tp309
Rp310
aa(lp311
g28
(g32
S':\xf3\x06+\xb8X\x93?'
p312
tp313
Rp314
aa(lp315
g28
(g32
S'\xbc\xd9\x94\x85\x93\xd2\x91?'
p316
tp317
Rp318
aa(lp319
g28
(g32
S'\x0bO\xd59y\xbfG?'
p320
tp321
Rp322
aa(lp323
g28
(g32
S'\xeb\x9d\xe1\x95\xe2G\x9b?'
p324
tp325
Rp326
aa(lp327
g28
(g32
S'\xfd\xa3\xec|q\x88\x9a?'
p328
tp329
Rp330
aa(lp331
g28
(g32
S'\xed\xa0\xd2;\xab\x94\x8d?'
p332
tp333
Rp334
aa(lp335
g28
(g32
S'\x9c\x8e\x9a\xf34\xccw?'
p336
tp337
Rp338
aa(lp339
g28
(g32
S'+g\x18\xca\xe0\xe5\x9f?'
p340
tp341
Rp342
aa(lp343
g28
(g32
S'\x1dH[\x03\xfb\xe0\x98?'
p344
tp345
Rp346
aa(lp347
g28
(g32
S'\x00\x00\x00\x00\x00\x00\x00\x00'
p348
tp349
Rp350
aa(lp351
g28
(g32
S'\xb5ST\xd9\xfc\xd6\xa1?'
p352
tp353
Rp354
aa(lp355
g28
(g32
S'\xd4\x14Q\xfc\x8cso?'
p356
tp357
Rp358
aa(lp359
g28
(g32
S'\xde\xd1 `\x7fc\xa0?'
p360
tp361
Rp362
aa(lp363
g28
(g32
S'p\xcf\xcf-\xe4\xcd\x82?'
p364
tp365
Rp366
aa(lp367
g28
(g32
S'\x97\xb7\\\xc8?\xd8r?'
p368
tp369
Rp370
aa(lp371
g28
(g32
S')\xde9:X\xf8\x90?'
p372
tp373
Rp374
aa(lp375
g28
(g32
S"+o'\x1c.Gs?"
p376
tp377
Rp378
aa(lp379
g28
(g32
S'Y\xdbs\xdag\xed\x96?'
p380
tp381
Rp382
aasg196
(lp383
F16.841784954071045
aF16.841784954071045
aF18.325443983078003
aF18.659085988998413
aF16.490455150604248
aF18.356693983078003
aF16.302466869354248
aF13.534425973892212
aF15.236260890960693
aF14.337449073791504
aF17.527786016464233
aF20.204128980636597
aF17.881659030914307
aF20.223684072494507
aF12.903862953186035
aF20.07281517982483
aF17.65925908088684
aF20.77458095550537
aF16.763556003570557
aF17.61831498146057
aF22.119590044021606
assS'P1'
p384
(dp385
g3
(lp386
(lp387
I91
aag387
a(lp388
I91
aa(lp389
I92
aa(lp390
I92
aa(lp391
I92
aa(lp392
I91
aa(lp393
I94
aa(lp394
I91
aa(lp395
I91
aa(lp396
I92
aa(lp397
I93
aa(lp398
I92
aa(lp399
I91
aa(lp400
I92
aa(lp401
I91
aa(lp402
I91
aa(lp403
I91
aa(lp404
I92
aa(lp405
I92
aa(lp406
I93
aasg25
(lp407
(lp408
g28
(g32
S'\xf8\xf0\x8b\xdf\xf0$\xa2?'
p409
tp410
Rp411
aag408
a(lp412
g28
(g32
S'\xef\xfc\xb5\xe5\xa8\xb3\x91?'
p413
tp414
Rp415
aa(lp416
g28
(g32
S'\tp\xf0\xb0Q\xd6\x99?'
p417
tp418
Rp419
aa(lp420
g28
(g32
S'(I\xb0\xcf\xf3\xc7\x87?'
p421
tp422
Rp423
aa(lp424
g28
(g32
S'D\x11r\x06\xab\xae\x8c?'
p425
tp426
Rp427
aa(lp428
g28
(g32
S'y\xac\x97\x8a\xd78\xa1?'
p429
tp430
Rp431
aa(lp432
g28
(g32
S'\x07\xf6"\xadz\x13\xa1?'
p433
tp434
Rp435
aa(lp436
g28
(g32
S'\x80"0Wa\x08\xb3?'
p437
tp438
Rp439
aa(lp440
g28
(g32
S'\xde\xc4L6m.\x9a?'
p441
tp442
Rp443
aa(lp444
g28
(g32
S'z\xb3l\x11\x1b\x05\xa0?'
p445
tp446
Rp447
aa(lp448
g28
(g32
S'}\xb8\x80i\xf8I\x83?'
p449
tp450
Rp451
aa(lp452
g28
(g32
S'\xb6\xc8+\xcfv]\xa5?'
p453
tp454
Rp455
aa(lp456
g28
(g32
S'\x87\xdb\xa8\x06H\xf3\xad?'
p457
tp458
Rp459
aa(lp460
g28
(g32
S'\xeb\x1c\x86\xf6Y\xb6\xa0?'
p461
tp462
Rp463
aa(lp464
g28
(g32
S'\xb0\x846\xff\xcd=\xbc?'
p465
tp466
Rp467
aa(lp468
g28
(g32
S"\xd7N'v^\x11\x8f?"
p469
tp470
Rp471
aa(lp472
g28
(g32
S'-\x7f=Y|\xca\x9e?'
p473
tp474
Rp475
aa(lp476
g28
(g32
S'\xa3>\xb9\x83\xb8\xbf\xa6?'
p477
tp478
Rp479
aa(lp480
g28
(g32
S'M\xfb\xb4|5\t\x9a?'
p481
tp482
Rp483
aa(lp484
g28
(g32
S'\xf4\xb7\x9e\x94\x87\xe5\x8a?'
p485
tp486
Rp487
aasg114
(lp488
(lp489
g28
(g32
S'\xd5\x9e\xebBL\xebi?'
p490
tp491
Rp492
aag489
a(lp493
g28
(g32
S'\x17\xb3\x83\xb5\xe8\xb3H?'
p494
tp495
Rp496
aa(lp497
g28
(g32
S'\x8e\xed\x93e\xab\x11}?'
p498
tp499
Rp500
aa(lp501
g28
(g32
S'5\xaa\xbe\xd5\xa0\x83\x7f?'
p502
tp503
Rp504
aa(lp505
g28
(g32
S'\x14\xaei-}t)?'
p506
tp507
Rp508
aa(lp509
g28
(g32
S'@\x0f\x85\xce&\xabJ?'
p510
tp511
Rp512
aa(lp513
g28
(g32
S'j\n\xc9&\x0c\xde\x89?'
p514
tp515
Rp516
aa(lp517
g28
(g32
S'9\xdc\xf1m\xfbSp?'
p518
tp519
Rp520
aa(lp521
g28
(g32
S'\xc1T;\xb4r\xcb\x03?'
p522
tp523
Rp524
aa(lp525
g28
(g32
S'\xe1`\x1c\x06E\xf9\xe1>'
p526
tp527
Rp528
aa(lp529
g28
(g32
S'\xda\x9e\x7f{\xa3yv?'
p530
tp531
Rp532
aa(lp533
g28
(g32
S"\xb6z\xdb\xd6+'l?"
p534
tp535
Rp536
aa(lp537
g28
(g32
S'\xa8\x0c\t\xd0\xa1K\x8c?'
p538
tp539
Rp540
aa(lp541
g28
(g32
S'\xaf\x1baL:\xb7T?'
p542
tp543
Rp544
aa(lp545
g28
(g32
S'h\x82Kl<\xc4x?'
p546
tp547
Rp548
aa(lp549
g28
(g32
S'4\xa6\xfdt\x9c\xb0m?'
p550
tp551
Rp552
aa(lp553
g28
(g32
S'\x85Pr\x08\xbf\xc0X?'
p554
tp555
Rp556
aa(lp557
g28
(g32
S'\x0cF\n\xaeCn\x9a?'
p558
tp559
Rp560
aa(lp561
g28
(g32
S'\xd4cg\x8av\xa9\x97?'
p562
tp563
Rp564
aa(lp565
g28
(g32
S'I\x05\x9c\x7f\x11\x0c\x9c?'
p566
tp567
Rp568
aasg196
(lp569
F14.695149183273315
aF14.695149183273315
aF13.869853973388672
aF21.0605628490448
aF19.357571125030518
aF15.249767780303955
aF22.044372081756592
aF19.134301900863647
aF19.98327088356018
aF16.17065691947937
aF21.103607177734375
aF20.77473211288452
aF16.469759941101074
aF24.028156042099
aF14.420547008514404
aF16.2499680519104
aF16.741230010986328
aF16.422544956207275
aF17.628288984298706
aF14.356750011444092
aF21.013592004776
assS'P4'
p570
(dp571
g3
(lp572
(lp573
I92
aag573
a(lp574
I93
aa(lp575
I92
aa(lp576
I91
aa(lp577
I91
aa(lp578
I92
aa(lp579
I91
aa(lp580
I92
aa(lp581
I93
aa(lp582
I91
aa(lp583
I92
aa(lp584
I93
aa(lp585
I93
aa(lp586
I92
aa(lp587
I92
aa(lp588
I93
aa(lp589
I93
aa(lp590
I91
aa(lp591
I93
aa(lp592
I92
aasg25
(lp593
(lp594
g28
(g32
S'\x127\xb7#\x944\xe6?'
p595
tp596
Rp597
aag594
a(lp598
g28
(g32
S'\xd6\x01\xc1\x07\x8c\xae\xe9?'
p599
tp600
Rp601
aa(lp602
g28
(g32
S'\x81\x15\x90\x80F\x17\xe9?'
p603
tp604
Rp605
aa(lp606
g28
(g32
S'\x92\xb4\xc2:\x98\x16\xe9?'
p607
tp608
Rp609
aa(lp610
g28
(g32
S'9\x8f\xad\x12\x8f\x08\xe9?'
p611
tp612
Rp613
aa(lp614
g28
(g32
S'\x90^\xce\xaeG\xb4\xe6?'
p615
tp616
Rp617
aa(lp618
g28
(g32
S'\x92\xb4\xc2:\x98\x16\xe9?'
p619
tp620
Rp621
aa(lp622
g28
(g32
S'oN\xba\xb0\xc8\x9b\xe7?'
p623
tp624
Rp625
aa(lp626
g28
(g32
S'\xd6\x01\xc1\x07\x8c\xae\xe9?'
p627
tp628
Rp629
aa(lp630
g28
(g32
S'\xd6\x01\xc1\x07\x8c\xae\xe9?'
p631
tp632
Rp633
aa(lp634
g28
(g32
S'n\x11\xda\x1c\xf9\xeb\xe8?'
p635
tp636
Rp637
aa(lp638
g28
(g32
S'\xe4a36\xdc\x1b\xe9?'
p639
tp640
Rp641
aa(lp642
g28
(g32
S'\x9d\xcdpT\xb8\xb5\xe9?'
p643
tp644
Rp645
aa(lp646
g28
(g32
S'6\x1b$\x15yN\xe9?'
p647
tp648
Rp649
aa(lp650
g28
(g32
S'\x8a]JeI\x14\xe9?'
p651
tp652
Rp653
aa(lp654
g28
(g32
S'\xd6\x01\xc1\x07\x8c\xae\xe9?'
p655
tp656
Rp657
aa(lp658
g28
(g32
S'\xea\xd6\xd5CL\xd5\xe7?'
p659
tp660
Rp661
aa(lp662
g28
(g32
S'\xba\xf1[\x8c\x07\x99\xe6?'
p663
tp664
Rp665
aa(lp666
g28
(g32
S'\x92\xb4\xc2:\x98\x16\xe9?'
p667
tp668
Rp669
aa(lp670
g28
(g32
S'\xa8\x87\xac\xbc\xf0\x1b\xe9?'
p671
tp672
Rp673
aasg114
(lp674
(lp675
g28
(g32
S'q3\xb07\xe0i\xb3?'
p676
tp677
Rp678
aag675
a(lp679
g28
(g32
S"\xd5\xbe\xcbI\x9a\xb2'?"
p680
tp681
Rp682
aa(lp683
g28
(g32
S'\xba\x993\x8b0\xae\xbe?'
p684
tp685
Rp686
aa(lp687
g28
(g32
S'\x923v,j\xd7\xa2?'
p688
tp689
Rp690
aa(lp691
g28
(g32
S'ZK\xfa\x83n\xc0\x9b?'
p692
tp693
Rp694
aa(lp695
g28
(g32
S'\x92q\xdf\xa0C\xb8\xa6?'
p696
tp697
Rp698
aa(lp699
g28
(g32
S'\x98xO\xce\x92\xa9\xa3?'
p700
tp701
Rp702
aa(lp703
g28
(g32
S'n\xf3\x1a\x18\xf5#\xa2?'
p704
tp705
Rp706
aa(lp707
g28
(g32
S"\xd5\xbe\xcbI\x9a\xb2'?"
p708
tp709
Rp710
aa(lp711
g28
(g32
S"\xd5\xbe\xcbI\x9a\xb2'?"
p712
tp713
Rp714
aa(lp715
g28
(g32
S'\xfdDJ\xc3[1\xc0?'
p716
tp717
Rp718
aa(lp719
g28
(g32
S'\xf9Cw\xe9t\xbb\\?'
p720
tp721
Rp722
aa(lp723
g28
(g32
S'\xe2\x171d\xe9\x93\xb1?'
p724
tp725
Rp726
aa(lp727
g28
(g32
S'\xd57\xb0\xefQO\x8a?'
p728
tp729
Rp730
aa(lp731
g28
(g32
S'u\x03G4b9\xa3?'
p732
tp733
Rp734
aa(lp735
g28
(g32
S"\xd5\xbe\xcbI\x9a\xb2'?"
p736
tp737
Rp738
aa(lp739
g28
(g32
S'\x80\xa7a\x0bkb\xcd?'
p740
tp741
Rp742
aa(lp743
g28
(g32
S'\xec\xef\xda\xa0\x05\xb8\xa0?'
p744
tp745
Rp746
aa(lp747
g28
(g32
S'\xd1\x07\xd4\x90A\x0c\xb3?'
p748
tp749
Rp750
aa(lp751
g28
(g32
S'W\xe7\xd9\xb1\x9f]\xc6?'
p752
tp753
Rp754
aasg196
(lp755
F17.05180811882019
aF17.05180811882019
aF19.591614961624146
aF17.204849004745483
aF20.70274806022644
aF17.755515098571777
aF17.137693166732788
aF21.756825923919678
aF17.445782899856567
aF19.60146689414978
aF16.978776216506958
aF17.85305690765381
aF18.930516958236694
aF15.14404582977295
aF19.56541109085083
aF16.876986980438232
aF18.007951021194458
aF20.349695920944214
aF13.773369073867798
aF17.42406702041626
aF18.561135053634644
assS'M4'
p756
(dp757
g3
(lp758
(lp759
I93
aag759
a(lp760
I91
aa(lp761
I94
aa(lp762
I91
aa(lp763
I93
aa(lp764
I94
aa(lp765
I94
aa(lp766
I93
aa(lp767
I94
aa(lp768
I94
aa(lp769
I94
aa(lp770
I95
aa(lp771
I94
aa(lp772
I94
aa(lp773
I93
aa(lp774
I91
aa(lp775
I91
aa(lp776
I92
aa(lp777
I91
aa(lp778
I91
aasg25
(lp779
(lp780
g28
(g32
S'!;\x94\x9eZ=\x85?'
p781
tp782
Rp783
aag780
a(lp784
g28
(g32
S'id\x9f>\xc4\xa6\x85?'
p785
tp786
Rp787
aa(lp788
g28
(g32
S'\x86/\x93\x97;m\x8f?'
p789
tp790
Rp791
aa(lp792
g28
(g32
S'\xb8z\x9e .\xf6\x82?'
p793
tp794
Rp795
aa(lp796
g28
(g32
S'\x1e\xdf\x03GR\x95\x8b?'
p797
tp798
Rp799
aa(lp800
g28
(g32
S'\x93\\^0\xaa\x0e\x8f?'
p801
tp802
Rp803
aa(lp804
g28
(g32
S"\x1d\x08\xb4\xe6'Q\x90?"
p805
tp806
Rp807
aa(lp808
g28
(g32
S'\x0f\x9c\xd8I\xb1\x02\x88?'
p809
tp810
Rp811
aa(lp812
g28
(g32
S'\x17\xbb75w\x9b\x91?'
p813
tp814
Rp815
aa(lp816
g28
(g32
S'\xd7 H\xc7\xa8d\x85?'
p817
tp818
Rp819
aa(lp820
g28
(g32
S'(T\x93\x13\xe9<\x84?'
p821
tp822
Rp823
aa(lp824
g28
(g32
S'\x0f\nTi\x84\xf0\x83?'
p825
tp826
Rp827
aa(lp828
g28
(g32
S'\x1a\xae\x1e\x00\x0c[\x88?'
p829
tp830
Rp831
aa(lp832
g28
(g32
S'rr\n%\xd3\xc4\x86?'
p833
tp834
Rp835
aa(lp836
g28
(g32
S'\x02\xcd<\xae\x1a\x96\x89?'
p837
tp838
Rp839
aa(lp840
g28
(g32
S'f[xu=\x1f\x89?'
p841
tp842
Rp843
aa(lp844
g28
(g32
S'\xd1\x9e\xf3\xf4\x12M\x85?'
p845
tp846
Rp847
aa(lp848
g28
(g32
S'TQ\xf1\x1c\xf7c\x8e?'
p849
tp850
Rp851
aa(lp852
g28
(g32
S'#pE\x9a\xf5\xb8\xa0?'
p853
tp854
Rp855
aa(lp856
g28
(g32
S'\xd7\xc4\x8fTd\x10\x95?'
p857
tp858
Rp859
aasg114
(lp860
(lp861
g28
(g32
S'\x9e\x15\xfb\x93\x1eql?'
p862
tp863
Rp864
aag861
a(lp865
g28
(g32
S'\xe6\x8eLHU\x9ck?'
p866
tp867
Rp868
aa(lp869
g28
(g32
S'E\x07\xfb\xa7E\xb8p?'
p870
tp871
Rp872
aa(lp873
g28
(g32
S'\xe0h\xc2*\x146h?'
p874
tp875
Rp876
aa(lp877
g28
(g32
S"\xdf7\x8aF'\xb1n?"
p878
tp879
Rp880
aa(lp881
g28
(g32
S'\xd4\tD\x04G"h?'
p882
tp883
Rp884
aa(lp885
g28
(g32
S'\x12e\x0b\x90\x87+q?'
p886
tp887
Rp888
aa(lp889
g28
(g32
S'\xbaj\xf6n|sk?'
p890
tp891
Rp892
aa(lp893
g28
(g32
S'D\xac\xe0\xd0\x14\xe1r?'
p894
tp895
Rp896
aa(lp897
g28
(g32
S'\xb9\xd5\xa1\x86\xe1\xc9p?'
p898
tp899
Rp900
aa(lp901
g28
(g32
S'C \xb1\x8b\xad_p?'
p902
tp903
Rp904
aa(lp905
g28
(g32
S';\xe8!!Z\x05g?'
p906
tp907
Rp908
aa(lp909
g28
(g32
S'\xafW\x80\xda\x03_h?'
p910
tp911
Rp912
aa(lp913
g28
(g32
S'H\xb5\xd1Z\x06\x9fs?'
p914
tp915
Rp916
aa(lp917
g28
(g32
S'Q1x\xc4\xc8\xc1o?'
p918
tp919
Rp920
aa(lp921
g28
(g32
S'\n\x8bk`|\x97p?'
p922
tp923
Rp924
aa(lp925
g28
(g32
S'W\xb0_!\x9d\xfdw?'
p926
tp927
Rp928
aa(lp929
g28
(g32
S'\xab\xabYE\x96\xc0~?'
p930
tp931
Rp932
aa(lp933
g28
(g32
S'H\xbf$\xc4H\x19u?'
p934
tp935
Rp936
aa(lp937
g28
(g32
S'\xcd\xfaU-\xa8hu?'
p938
tp939
Rp940
aasg196
(lp941
F26.58725094795227
aF26.58725094795227
aF28.524247884750366
aF30.92841601371765
aF27.49120807647705
aF25.628721952438354
aF28.737951040267944
aF24.431965112686157
aF29.669272899627686
aF31.592677116394043
aF27.782826900482178
aF27.74534797668457
aF26.27703881263733
aF28.83585500717163
aF27.996865034103394
aF27.948314905166626
aF29.475321054458618
aF26.103016138076782
aF32.290403842926025
aF31.5361270904541
aF26.017727851867676
assS'M1'
p942
(dp943
g3
(lp944
(lp945
I95
aag945
a(lp946
I91
aa(lp947
I91
aa(lp948
I93
aa(lp949
I92
aa(lp950
I91
aa(lp951
I94
aa(lp952
I92
aa(lp953
I91
aa(lp954
I92
aa(lp955
I94
aa(lp956
I92
aa(lp957
I92
aa(lp958
I92
aa(lp959
I92
aa(lp960
I91
aa(lp961
I92
aa(lp962
I91
aa(lp963
I93
aa(lp964
I92
aasg25
(lp965
(lp966
g28
(g32
S'"\r.\xbf\xceW\x8d?'
p967
tp968
Rp969
aag966
a(lp970
g28
(g32
S'\x8a\x8e\x87vx\xfa\x9a?'
p971
tp972
Rp973
aa(lp974
g28
(g32
S'\x13\xac\xe7zvC\x88?'
p975
tp976
Rp977
aa(lp978
g28
(g32
S'\xa0D\xb0\x8b>\xde\x91?'
p979
tp980
Rp981
aa(lp982
g28
(g32
S'\xd3\xd7\xa6\xf1\x01\xd5\x8d?'
p983
tp984
Rp985
aa(lp986
g28
(g32
S'\xc7M\xeaqg9\x8c?'
p987
tp988
Rp989
aa(lp990
g28
(g32
S'\xb4\x8d\xce\xf3\x01\x04\x99?'
p991
tp992
Rp993
aa(lp994
g28
(g32
S'\xd8\xed\x957\xbb.\x96?'
p995
tp996
Rp997
aa(lp998
g28
(g32
S'\x93\x87J\x88E{\x96?'
p999
tp1000
Rp1001
aa(lp1002
g28
(g32
S'\xb5\xcf\x0b5\xaf4\x99?'
p1003
tp1004
Rp1005
aa(lp1006
g28
(g32
S'\x0e\x97\x9b\xe7\x8f\x8a\x8d?'
p1007
tp1008
Rp1009
aa(lp1010
g28
(g32
S'\xd0\xb6\x9co\xdc:\x90?'
p1011
tp1012
Rp1013
aa(lp1014
g28
(g32
S'%B\xb8u\t\xac\x8f?'
p1015
tp1016
Rp1017
aa(lp1018
g28
(g32
S'\xc8\x86`>\x87\xe7\x97?'
p1019
tp1020
Rp1021
aa(lp1022
g28
(g32
S'\x1c]\x8d[!H\x91?'
p1023
tp1024
Rp1025
aa(lp1026
g28
(g32
S'\x05D\x129\xce\xd7\x95?'
p1027
tp1028
Rp1029
aa(lp1030
g28
(g32
S'=y\xe6\xf7P\xd2\x90?'
p1031
tp1032
Rp1033
aa(lp1034
g28
(g32
S'*\xd5D\xcb_\xd3\x90?'
p1035
tp1036
Rp1037
aa(lp1038
g28
(g32
S'\x93\x86\xee\x81\x014\x95?'
p1039
tp1040
Rp1041
aa(lp1042
g28
(g32
S'\xac\t\xb9\x94\x07Q\x8a?'
p1043
tp1044
Rp1045
aasg114
(lp1046
(lp1047
g28
(g32
S'O\x9d\xafLeAx?'
p1048
tp1049
Rp1050
aag1047
a(lp1051
g28
(g32
S'\xba\x83\x7f\xe7\xca*x?'
p1052
tp1053
Rp1054
aa(lp1055
g28
(g32
S'\xb1\xddI\x93\xdcs\x7f?'
p1056
tp1057
Rp1058
aa(lp1059
g28
(g32
S"\x1fHa<\x16'\x80?"
p1060
tp1061
Rp1062
aa(lp1063
g28
(g32
S'\xbf\xbar\xd4]`z?'
p1064
tp1065
Rp1066
aa(lp1067
g28
(g32
S'\x80\xab\xc8a\xe6M}?'
p1068
tp1069
Rp1070
aa(lp1071
g28
(g32
S'\x8e\xdb\x7fX(\xd5s?'
p1072
tp1073
Rp1074
aa(lp1075
g28
(g32
S'\x93\x11\x04\xdf \x0cs?'
p1076
tp1077
Rp1078
aa(lp1079
g28
(g32
S'\x93Q\xe9\xcd\xed\xd3s?'
p1080
tp1081
Rp1082
aa(lp1083
g28
(g32
S'\x98,\x1dtM(y?'
p1084
tp1085
Rp1086
aa(lp1087
g28
(g32
S'\x9f\xf8\x92f\n\xe8u?'
p1088
tp1089
Rp1090
aa(lp1091
g28
(g32
S'\xa8B\xa5|\x9b\t\x83?'
p1092
tp1093
Rp1094
aa(lp1095
g28
(g32
S'\x0c\x81\x8e\xfcu\xc3\x81?'
p1096
tp1097
Rp1098
aa(lp1099
g28
(g32
S'b\x9c\xc98\x9e7\x80?'
p1100
tp1101
Rp1102
aa(lp1103
g28
(g32
S'u\xa1z\xb6(\x1b}?'
p1104
tp1105
Rp1106
aa(lp1107
g28
(g32
S'\x90@\x84\xadF$w?'
p1108
tp1109
Rp1110
aa(lp1111
g28
(g32
S'\xbfY\x974\xfd\x81\x81?'
p1112
tp1113
Rp1114
aa(lp1115
g28
(g32
S'I\x02\x02\xa29\ns?'
p1116
tp1117
Rp1118
aa(lp1119
g28
(g32
S'r\x00\x15A\x0f\x98q?'
p1120
tp1121
Rp1122
aa(lp1123
g28
(g32
S'/\xd2\x03c#us?'
p1124
tp1125
Rp1126
aasg196
(lp1127
F34.04471397399902
aF34.04471397399902
aF34.40090489387512
aF34.71726989746094
aF31.28504204750061
aF32.07831311225891
aF28.514790058135986
aF32.75095200538635
aF33.40729093551636
aF37.03872609138489
aF31.445686101913452
aF37.76240801811218
aF35.85046696662903
aF29.549925088882446
aF30.78902292251587
aF35.406975984573364
aF32.74801301956177
aF33.90793800354004
aF37.21198391914368
aF30.20753288269043
aF33.570382833480835
assS'M3'
p1128
(dp1129
g3
(lp1130
(lp1131
I91
aag1131
a(lp1132
I91
aa(lp1133
I91
aa(lp1134
I91
aa(lp1135
I93
aa(lp1136
I92
aa(lp1137
I93
aa(lp1138
I95
aa(lp1139
I94
aa(lp1140
I93
aa(lp1141
I92
aa(lp1142
I91
aa(lp1143
I94
aa(lp1144
I91
aa(lp1145
I94
aa(lp1146
I92
aa(lp1147
I92
aa(lp1148
I91
aa(lp1149
I91
aa(lp1150
I91
aasg25
(lp1151
(lp1152
g28
(g32
S'\xd4?\x10i$/\x8d?'
p1153
tp1154
Rp1155
aag1152
a(lp1156
g28
(g32
S'\x9cx\xdaB\xc9\x8d\x83?'
p1157
tp1158
Rp1159
aa(lp1160
g28
(g32
S'wMjUx\x02\x99?'
p1161
tp1162
Rp1163
aa(lp1164
g28
(g32
S"@\x0c\xd3}'\xad\x89?"
p1165
tp1166
Rp1167
aa(lp1168
g28
(g32
S'\xd5h\xce\x89W\x9b\x95?'
p1169
tp1170
Rp1171
aa(lp1172
g28
(g32
S'\xf4\xaf\x91\xc4\x95f\x9a?'
p1173
tp1174
Rp1175
aa(lp1176
g28
(g32
S'\x1d\xfdi\x06\xa9\x1a\x98?'
p1177
tp1178
Rp1179
aa(lp1180
g28
(g32
S'\xd9\x96<\xf0|\xea\x8a?'
p1181
tp1182
Rp1183
aa(lp1184
g28
(g32
S'\xc7\xa9\xf9\x84\xde\x16\x8b?'
p1185
tp1186
Rp1187
aa(lp1188
g28
(g32
S'\xe8\x9eK\xf2q\xb6\x8a?'
p1189
tp1190
Rp1191
aa(lp1192
g28
(g32
S'\xd6\xd2\xa2\xfag\xff\x9a?'
p1193
tp1194
Rp1195
aa(lp1196
g28
(g32
S'\xc2\x1f\xf7\x83\xa7-\x8c?'
p1197
tp1198
Rp1199
aa(lp1200
g28
(g32
S'\xc6\xa3\x00\xf7\r\xe9\x96?'
p1201
tp1202
Rp1203
aa(lp1204
g28
(g32
S'\xd3q\xd1 M\xc2\x90?'
p1205
tp1206
Rp1207
aa(lp1208
g28
(g32
S'1\x08\xc0\x90(\xe0\x83?'
p1209
tp1210
Rp1211
aa(lp1212
g28
(g32
S'"\x9b\x12\xef.\xcbz?'
p1213
tp1214
Rp1215
aa(lp1216
g28
(g32
S'm\xb7\x0e\x92>\xa9\x8a?'
p1217
tp1218
Rp1219
aa(lp1220
g28
(g32
S'\x86}f^J\xc4\x84?'
p1221
tp1222
Rp1223
aa(lp1224
g28
(g32
S'\xd3f\xd7\x19t\xfc\x8e?'
p1225
tp1226
Rp1227
aa(lp1228
g28
(g32
S'|\x12;R\x04\xd8\x82?'
p1229
tp1230
Rp1231
aasg114
(lp1232
(lp1233
g28
(g32
S'\x9aU\x87\xd0\xce\x19u?'
p1234
tp1235
Rp1236
aag1233
a(lp1237
g28
(g32
S'2\xf7\x97\x19\x9f\x1c\x7f?'
p1238
tp1239
Rp1240
aa(lp1241
g28
(g32
S'\xba|\x1f1\xef\xa6k?'
p1242
tp1243
Rp1244
aa(lp1245
g28
(g32
S'\xaf\xc5\xb5\xe9J\x8bp?'
p1246
tp1247
Rp1248
aa(lp1249
g28
(g32
S'\xb9I\x8bZ\x0c\x91r?'
p1250
tp1251
Rp1252
aa(lp1253
g28
(g32
S'a\x9e\x0ci\xf5|q?'
p1254
tp1255
Rp1256
aa(lp1257
g28
(g32
S'v=\x953\xe8\xbcg?'
p1258
tp1259
Rp1260
aa(lp1261
g28
(g32
S'\x8c?.\xd68\x9a|?'
p1262
tp1263
Rp1264
aa(lp1265
g28
(g32
S'sc\xd9\xc4@\xfat?'
p1266
tp1267
Rp1268
aa(lp1269
g28
(g32
S'`@\xb9UVLq?'
p1270
tp1271
Rp1272
aa(lp1273
g28
(g32
S'\x82\xb2\x16\xf8~\xf0t?'
p1274
tp1275
Rp1276
aa(lp1277
g28
(g32
S'\xcd\x9f$\x7f#\xb6s?'
p1278
tp1279
Rp1280
aa(lp1281
g28
(g32
S'\xefy<\x01mxp?'
p1282
tp1283
Rp1284
aa(lp1285
g28
(g32
S'\xcf\xc5x\xaf\xdb\x84p?'
p1286
tp1287
Rp1288
aa(lp1289
g28
(g32
S'\xd8d\xb5\xeb\xe8\xecs?'
p1290
tp1291
Rp1292
aa(lp1293
g28
(g32
S'\xe9i\xb2\xe8\xff\xaco?'
p1294
tp1295
Rp1296
aa(lp1297
g28
(g32
S'%1\xefoq\xa7s?'
p1298
tp1299
Rp1300
aa(lp1301
g28
(g32
S'u\xfa\xe3p\xdf\xc7v?'
p1302
tp1303
Rp1304
aa(lp1305
g28
(g32
S'[\x9d\xfa\xf8\x9d\xdaw?'
p1306
tp1307
Rp1308
aa(lp1309
g28
(g32
S'\xdd\xbb\xd9\xe5_)\x80?'
p1310
tp1311
Rp1312
aasg196
(lp1313
F28.779083013534546
aF28.779083013534546
aF32.50985288619995
aF31.042603015899658
aF31.50185203552246
aF36.09527897834778
aF36.544503927230835
aF33.00791597366333
aF31.899255990982056
aF29.10224199295044
aF29.11589002609253
aF28.010427951812744
aF26.23775815963745
aF27.36915397644043
aF33.49001717567444
aF31.571134090423584
aF35.085729122161865
aF37.05272102355957
aF29.106441020965576
aF30.444615125656128
aF29.5846529006958
assS'M2'
p1314
(dp1315
g3
(lp1316
(lp1317
I91
aag1317
a(lp1318
I95
aa(lp1319
I92
aa(lp1320
I92
aa(lp1321
I92
aa(lp1322
I94
aa(lp1323
I91
aa(lp1324
I92
aa(lp1325
I94
aa(lp1326
I91
aa(lp1327
I92
aa(lp1328
I92
aa(lp1329
I92
aa(lp1330
I95
aa(lp1331
I92
aa(lp1332
I91
aa(lp1333
I91
aa(lp1334
I91
aa(lp1335
I91
aa(lp1336
I91
aasg25
(lp1337
(lp1338
g28
(g32
S'{5\x1f\x06w\x1c\x85?'
p1339
tp1340
Rp1341
aag1338
a(lp1342
g28
(g32
S'\tM\xa6\x19]\xaf\x83?'
p1343
tp1344
Rp1345
aa(lp1346
g28
(g32
S'\x06\xf1\xb5\x9e\xe2_\x85?'
p1347
tp1348
Rp1349
aa(lp1350
g28
(g32
S'!\xe7\x04\x17\xad\x8e\x8e?'
p1351
tp1352
Rp1353
aa(lp1354
g28
(g32
S'n\xe8\x95K\xe1\xee\x80?'
p1355
tp1356
Rp1357
aa(lp1358
g28
(g32
S'\xbd\xff\xa9@\x1du\x84?'
p1359
tp1360
Rp1361
aa(lp1362
g28
(g32
S'\xc0\x19Izn\x13\x80?'
p1363
tp1364
Rp1365
aa(lp1366
g28
(g32
S'4\n\xfe(\x92)\x81?'
p1367
tp1368
Rp1369
aa(lp1370
g28
(g32
S'\r\xca\x01Q[\xbf\x8a?'
p1371
tp1372
Rp1373
aa(lp1374
g28
(g32
S'\xc8\x18\x90_\xbb\xd4\x82?'
p1375
tp1376
Rp1377
aa(lp1378
g28
(g32
S'\xf5\xca\xc6\r\x97#\x84?'
p1379
tp1380
Rp1381
aa(lp1382
g28
(g32
S'\xe8\xe0\xd8\xad<\xbc\x81?'
p1383
tp1384
Rp1385
aa(lp1386
g28
(g32
S'\x082\x8c\x13dK\x91?'
p1387
tp1388
Rp1389
aa(lp1390
g28
(g32
S'|Rl;\x005{?'
p1391
tp1392
Rp1393
aa(lp1394
g28
(g32
S'\x18\xee\xcd3M@\x83?'
p1395
tp1396
Rp1397
aa(lp1398
g28
(g32
S'\x06{\xa8\xc7c\x1f\x88?'
p1399
tp1400
Rp1401
aa(lp1402
g28
(g32
S'5\xc8eC\xd2\xfe\x85?'
p1403
tp1404
Rp1405
aa(lp1406
g28
(g32
S'\x89\x81"\xb8\x82\xe6\x8a?'
p1407
tp1408
Rp1409
aa(lp1410
g28
(g32
S'\xc0\x9f\xcev;v\x87?'
p1411
tp1412
Rp1413
aa(lp1414
g28
(g32
S'\x9dq\x1f\xf0\xb0s\x8b?'
p1415
tp1416
Rp1417
aasg114
(lp1418
(lp1419
g28
(g32
S'_ UP\xd8\ry?'
p1420
tp1421
Rp1422
aag1419
a(lp1423
g28
(g32
S'\x81\x97Ar$\xfet?'
p1424
tp1425
Rp1426
aa(lp1427
g28
(g32
S'\xd3\x1eX\xf8\xc1\x84y?'
p1428
tp1429
Rp1430
aa(lp1431
g28
(g32
S'\xf8A\x11f\xe9\x85z?'
p1432
tp1433
Rp1434
aa(lp1435
g28
(g32
S'\x90F\x07T\x10ll?'
p1436
tp1437
Rp1438
aa(lp1439
g28
(g32
S':\xae{\xb3\xb7\xc6n?'
p1440
tp1441
Rp1442
aa(lp1443
g28
(g32
S'\xc2\xb2,\xdf8\xb1w?'
p1444
tp1445
Rp1446
aa(lp1447
g28
(g32
S'\xf9\xe7\xfc\x8f\xe7\xber?'
p1448
tp1449
Rp1450
aa(lp1451
g28
(g32
S'I(\xe1\t\xc5\xa2s?'
p1452
tp1453
Rp1454
aa(lp1455
g28
(g32
S'\xcbi\n\xf8\x11\xf6w?'
p1456
tp1457
Rp1458
aa(lp1459
g28
(g32
S'\xb8\xcc(zK3x?'
p1460
tp1461
Rp1462
aa(lp1463
g28
(g32
S"\x88\x8a\xad'\xd6bv?"
p1464
tp1465
Rp1466
aa(lp1467
g28
(g32
S'"\xa1\x90\x8f\x07\x95u?'
p1468
tp1469
Rp1470
aa(lp1471
g28
(g32
S'uD\xb3\xca\xe3yi?'
p1472
tp1473
Rp1474
aa(lp1475
g28
(g32
S'\x18uP\xd8W&s?'
p1476
tp1477
Rp1478
aa(lp1479
g28
(g32
S'\xd4\xcf4\x92\xad\xcfh?'
p1480
tp1481
Rp1482
aa(lp1483
g28
(g32
S'\xe0C\x0fw\xee\x99x?'
p1484
tp1485
Rp1486
aa(lp1487
g28
(g32
S'\xf3\xa4\x00J\xb6\xd1u?'
p1488
tp1489
Rp1490
aa(lp1491
g28
(g32
S'\xe9\xe0\x89Dt\xbep?'
p1492
tp1493
Rp1494
aa(lp1495
g28
(g32
S'\x1a\xdf\xdak\x9f\xadz?'
p1496
tp1497
Rp1498
aasg196
(lp1499
F33.41948699951172
aF33.41948699951172
aF30.803525924682617
aF30.062134981155396
aF29.687784910202026
aF28.46555209159851
aF32.46703290939331
aF30.80058193206787
aF26.897974967956543
aF30.749485969543457
aF30.01260209083557
aF33.59721779823303
aF30.267019033432007
aF31.108750820159912
aF29.720704078674316
aF29.69875192642212
aF29.398563146591187
aF31.03998303413391
aF33.27562713623047
aF31.34731698036194
aF35.31449890136719
assS'X2'
p1500
(dp1501
g3
(lp1502
(lp1503
I91
aag1503
a(lp1504
I91
aa(lp1505
I91
aa(lp1506
I96
aa(lp1507
I92
aa(lp1508
I92
aa(lp1509
I91
aa(lp1510
I94
aa(lp1511
I93
aa(lp1512
I92
aa(lp1513
I91
aa(lp1514
I91
aa(lp1515
I95
aa(lp1516
I92
aa(lp1517
I93
aa(lp1518
I92
aa(lp1519
I91
aa(lp1520
I96
aa(lp1521
I92
aa(lp1522
I95
aasg25
(lp1523
(lp1524
g28
(g32
S'\x8e\x06`\x1a\xee2y?'
p1525
tp1526
Rp1527
aag1524
a(lp1528
g28
(g32
S'\xae\xe6\x8fmZ$\x96?'
p1529
tp1530
Rp1531
aa(lp1532
g28
(g32
S'j5\x8d\xdc`\x02\x8a?'
p1533
tp1534
Rp1535
aa(lp1536
g28
(g32
S'\x8a]G\xd2\x0f\xa9\x7f?'
p1537
tp1538
Rp1539
aa(lp1540
g28
(g32
S'\xc3\xd8\xf2\x85\x86\xf3\x8a?'
p1541
tp1542
Rp1543
aa(lp1544
g28
(g32
S'\x1d\xeca\x95\xfeH\x91?'
p1545
tp1546
Rp1547
aa(lp1548
g28
(g32
S'j\xf8\x86\x88\xc2\xfe\x80?'
p1549
tp1550
Rp1551
aa(lp1552
g28
(g32
S'O\xc8 Z\x93\x80\x92?'
p1553
tp1554
Rp1555
aa(lp1556
g28
(g32
S'\x92-\x85C\xd7\x1a\x92?'
p1557
tp1558
Rp1559
aa(lp1560
g28
(g32
S'\xef\x93\xe0\xb4\x8b\x84\x85?'
p1561
tp1562
Rp1563
aa(lp1564
g28
(g32
S'\xb4\xba\x081\x1ec\x84?'
p1565
tp1566
Rp1567
aa(lp1568
g28
(g32
S'\rV\x07JG\xd7\x94?'
p1569
tp1570
Rp1571
aa(lp1572
g28
(g32
S'\x8dfj\x18+o\x90?'
p1573
tp1574
Rp1575
aa(lp1576
g28
(g32
S'\xa6\x99\xd2\x8f\xa0\xc0\x9a?'
p1577
tp1578
Rp1579
aa(lp1580
g28
(g32
S'\x16\x03:\xe3\xc1H\x91?'
p1581
tp1582
Rp1583
aa(lp1584
g28
(g32
S'Q\xdc&\x1d$\x03\x86?'
p1585
tp1586
Rp1587
aa(lp1588
g28
(g32
S'\xdem\\\x83?\x11\x8b?'
p1589
tp1590
Rp1591
aa(lp1592
g28
(g32
S'q\xd6a\xcf\x86<\x85?'
p1593
tp1594
Rp1595
aa(lp1596
g28
(g32
S'\x1a\xdeon\xb32\x84?'
p1597
tp1598
Rp1599
aa(lp1600
g28
(g32
S'\xeb\x05\xfd\xae)\xb5\x87?'
p1601
tp1602
Rp1603
aasg114
(lp1604
(lp1605
g28
(g32
S'.K\x1fo\x11t\xbb?'
p1606
tp1607
Rp1608
aag1605
a(lp1609
g28
(g32
S'\xd2\n\x8f\x0b\xf9%\x8f?'
p1610
tp1611
Rp1612
aa(lp1613
g28
(g32
S'\xeb\xeb\xdc&w\x95\xa1?'
p1614
tp1615
Rp1616
aa(lp1617
g28
(g32
S'j\xca\x92\t\xff\xd8q?'
p1618
tp1619
Rp1620
aa(lp1621
g28
(g32
S'\xb0\x1b\x8dV\xdc\x86\x95?'
p1622
tp1623
Rp1624
aa(lp1625
g28
(g32
S'HHgAJ;\xa2?'
p1626
tp1627
Rp1628
aa(lp1629
g28
(g32
S'r\xbbG\x9d\xf58\x92?'
p1630
tp1631
Rp1632
aa(lp1633
g28
(g32
S'\xab\xc5\x0e\x96\xa7\x0c\x96?'
p1634
tp1635
Rp1636
aa(lp1637
g28
(g32
S'\xbf1\x1e\x17\xe9\xcb\x92?'
p1638
tp1639
Rp1640
aa(lp1641
g28
(g32
S'\xa3!\x81\x8aI$\x8e?'
p1642
tp1643
Rp1644
aa(lp1645
g28
(g32
S'\x06W\xb1L\xe6\xd3\xb1?'
p1646
tp1647
Rp1648
aa(lp1649
g28
(g32
S'q\xb7\x06!\xd98\x8c?'
p1650
tp1651
Rp1652
aa(lp1653
g28
(g32
S'\xb7\x16\n\xba1\xf2\xa1?'
p1654
tp1655
Rp1656
aa(lp1657
g28
(g32
S"P\x9e\xbe\xec'\xe4T?"
p1658
tp1659
Rp1660
aa(lp1661
g28
(g32
S'\xd5\xbblS\x08\xe1\x8b?'
p1662
tp1663
Rp1664
aa(lp1665
g28
(g32
S'X5)\x91\x00E\xb6?'
p1666
tp1667
Rp1668
aa(lp1669
g28
(g32
S'\x91\x86e\x89I\xac\x90?'
p1670
tp1671
Rp1672
aa(lp1673
g28
(g32
S'[\xb0Uwwh\x99?'
p1674
tp1675
Rp1676
aa(lp1677
g28
(g32
S'\x1b\x9a\x8f\xf7#\xacs?'
p1678
tp1679
Rp1680
aa(lp1681
g28
(g32
S'%m\xd7\xc2#\xa8\x90?'
p1682
tp1683
Rp1684
aasg196
(lp1685
F23.252501010894775
aF23.252501010894775
aF16.38191795349121
aF16.85114598274231
aF17.117393016815186
aF18.355183839797974
aF16.30121898651123
aF18.318017959594727
aF21.999889135360718
aF20.370084047317505
aF17.79309105873108
aF15.720535039901733
aF19.907670974731445
aF15.235706090927124
aF17.459574937820435
aF17.713945150375366
aF19.681418895721436
aF14.459880113601685
aF18.06771993637085
aF21.759604930877686
aF16.474691152572632
assS'X3'
p1686
(dp1687
g3
(lp1688
(lp1689
I91
aag1689
a(lp1690
I94
aa(lp1691
I92
aa(lp1692
I92
aa(lp1693
I91
aa(lp1694
I91
aa(lp1695
I91
aa(lp1696
I96
aa(lp1697
I93
aa(lp1698
I93
aa(lp1699
I96
aa(lp1700
I94
aa(lp1701
I95
aa(lp1702
I91
aa(lp1703
I91
aa(lp1704
I91
aa(lp1705
I94
aa(lp1706
I96
aa(lp1707
I94
aa(lp1708
I92
aasg25
(lp1709
(lp1710
g28
(g32
S')E\xa0\x84B\x92~?'
p1711
tp1712
Rp1713
aag1710
a(lp1714
g28
(g32
S'\xbfy\x0f\n\xdd\xdb\x81?'
p1715
tp1716
Rp1717
aa(lp1718
g28
(g32
S'\xb3\x88t\xaf\x9d\xc7x?'
p1719
tp1720
Rp1721
aa(lp1722
g28
(g32
S'\x14\x03\xdfU\x16\x15v?'
p1723
tp1724
Rp1725
aa(lp1726
g28
(g32
S'\x12\x10\x16Zh.u?'
p1727
tp1728
Rp1729
aa(lp1730
g28
(g32
S'\x97\xd3G\xe7\xceT\x84?'
p1731
tp1732
Rp1733
aa(lp1734
g28
(g32
S'\x01p\xcc\xe9\x88\x8b~?'
p1735
tp1736
Rp1737
aa(lp1738
g28
(g32
S'S8\xb9\xa0\xf9^f?'
p1739
tp1740
Rp1741
aa(lp1742
g28
(g32
S'=\x96\xa6\x9b\x14\xe7\x7f?'
p1743
tp1744
Rp1745
aa(lp1746
g28
(g32
S'\xd4\x0f\xf6!\xfb\xc6b?'
p1747
tp1748
Rp1749
aa(lp1750
g28
(g32
S'&\xbd\xe5|cBr?'
p1751
tp1752
Rp1753
aa(lp1754
g28
(g32
S'z\x97\x9e-\xfc\xaf\x87?'
p1755
tp1756
Rp1757
aa(lp1758
g28
(g32
S'\xe7\x80\xccG\xe1\x92\x8a?'
p1759
tp1760
Rp1761
aa(lp1762
g28
(g32
S'\xe6\x9cef\x16u\x88?'
p1763
tp1764
Rp1765
aa(lp1766
g28
(g32
S'q\xac\x05\xe2\x9c%\x86?'
p1767
tp1768
Rp1769
aa(lp1770
g28
(g32
S'\x03t\xbdM\x90|\x94?'
p1771
tp1772
Rp1773
aa(lp1774
g28
(g32
S'\xbf\xa9\xfa\xfb\x00\x9dn?'
p1775
tp1776
Rp1777
aa(lp1778
g28
(g32
S'\xbc\xb0}?\x1a\xa4\x88?'
p1779
tp1780
Rp1781
aa(lp1782
g28
(g32
S's\xc7\\VS\x19u?'
p1783
tp1784
Rp1785
aa(lp1786
g28
(g32
S'\xdcA/\xfe6\x81v?'
p1787
tp1788
Rp1789
aasg114
(lp1790
(lp1791
g28
(g32
S'\x97\xbc\xe7A\xe6(\xa6?'
p1792
tp1793
Rp1794
aag1791
a(lp1795
g28
(g32
S"\x03'\xaf\x87\x1e\x98\x8d?"
p1796
tp1797
Rp1798
aa(lp1799
g28
(g32
S'94P\xd3\xa9\x97\x91?'
p1800
tp1801
Rp1802
aa(lp1803
g28
(g32
S'#*u\xe9"\xadp?'
p1804
tp1805
Rp1806
aa(lp1807
g28
(g32
S'2\xd4\xf1\xb7\xbe\xed\x87?'
p1808
tp1809
Rp1810
aa(lp1811
g28
(g32
S'\x98\x86/\xe3\xbf?\x87?'
p1812
tp1813
Rp1814
aa(lp1815
g28
(g32
S'i\xd2\xd6\xb6\x97\x00%?'
p1816
tp1817
Rp1818
aa(lp1819
g28
(g32
S'%\xd4\xd3\x19od\x13?'
p1820
tp1821
Rp1822
aa(lp1823
g28
(g32
S'N~a\x7f\xfa\x1a\x91?'
p1824
tp1825
Rp1826
aa(lp1827
g28
(g32
S'\x1e\xb0\x81\xfe\xec.!?'
p1828
tp1829
Rp1830
aa(lp1831
g28
(g32
S'\x0bc\x157=V\x9a?'
p1832
tp1833
Rp1834
aa(lp1835
g28
(g32
S'\x11\xe8\x91\xb2\x03U\x99?'
p1836
tp1837
Rp1838
aa(lp1839
g28
(g32
S'\x9b3.\x1bmv\x9f?'
p1840
tp1841
Rp1842
aa(lp1843
g28
(g32
S'\x17\x9e\xb3\xbc\x7f\x0c\xa4?'
p1844
tp1845
Rp1846
aa(lp1847
g28
(g32
S'\xe7\xf5\xd1\x05\x0c\xdf\x90?'
p1848
tp1849
Rp1850
aa(lp1851
g28
(g32
S'\x9a\xfax\xeb\xce"%?'
p1852
tp1853
Rp1854
aa(lp1855
g28
(g32
S'\x1a\xb8\xc3\x8d\xca\x96\\?'
p1856
tp1857
Rp1858
aa(lp1859
g28
(g32
S'e\xc1\xc1\xe1\x08\xe3\x87?'
p1860
tp1861
Rp1862
aa(lp1863
g28
(g32
S'j\xf1\xb7\xf3\xfb\x89\x87?'
p1864
tp1865
Rp1866
aa(lp1867
g28
(g32
S'\x8e10H\x01!a?'
p1868
tp1869
Rp1870
aasg196
(lp1871
F18.116484880447388
aF18.116484880447388
aF18.59951615333557
aF14.626958131790161
aF18.627933979034424
aF16.31212878227234
aF15.97484803199768
aF14.835345983505249
aF16.112525939941406
aF18.694865942001343
aF17.165294885635376
aF18.903019905090332
aF17.06174898147583
aF17.575159072875977
aF18.892322778701782
aF20.009208917617798
aF18.664371013641357
aF18.736881971359253
aF18.223287105560303
aF13.841126918792725
aF19.619230031967163
assS'X1'
p1872
(dp1873
g3
(lp1874
(lp1875
I92
aag1875
a(lp1876
I91
aa(lp1877
I92
aa(lp1878
I93
aa(lp1879
I92
aa(lp1880
I91
aa(lp1881
I91
aa(lp1882
I93
aa(lp1883
I92
aa(lp1884
I92
aa(lp1885
I93
aa(lp1886
I91
aa(lp1887
I92
aa(lp1888
I92
aa(lp1889
I92
aa(lp1890
I91
aa(lp1891
I92
aa(lp1892
I92
aa(lp1893
I96
aa(lp1894
I92
aasg25
(lp1895
(lp1896
g28
(g32
S'MM(\x88{Rv?'
p1897
tp1898
Rp1899
aag1896
a(lp1900
g28
(g32
S'\xcb\xd5\xf2\xde!\xf7o?'
p1901
tp1902
Rp1903
aa(lp1904
g28
(g32
S'\xd1\x0bz\xee\xcc\x08\x82?'
p1905
tp1906
Rp1907
aa(lp1908
g28
(g32
S'\x8c)\xc4\xcf\xa3\xad\x81?'
p1909
tp1910
Rp1911
aa(lp1912
g28
(g32
S'\xb6\xe0rdQJz?'
p1913
tp1914
Rp1915
aa(lp1916
g28
(g32
S'=\x8c$M\xa6\xf0x?'
p1917
tp1918
Rp1919
aa(lp1920
g28
(g32
S'\x9cW8.\xaa\xf7z?'
p1921
tp1922
Rp1923
aa(lp1924
g28
(g32
S'\xb2(\x99\x82\xf2\x07p?'
p1925
tp1926
Rp1927
aa(lp1928
g28
(g32
S'\x1c\xf1\xe1-K\x8a\x88?'
p1929
tp1930
Rp1931
aa(lp1932
g28
(g32
S'<MG8\x8fw|?'
p1933
tp1934
Rp1935
aa(lp1936
g28
(g32
S'\x0f\x88]\xab\xaa\xf6\x8b?'
p1937
tp1938
Rp1939
aa(lp1940
g28
(g32
S'D\x800\x7f\xe0D~?'
p1941
tp1942
Rp1943
aa(lp1944
g28
(g32
S'RD$\x00\xc7\xcdk?'
p1945
tp1946
Rp1947
aa(lp1948
g28
(g32
S'?rAw\x99Ly?'
p1949
tp1950
Rp1951
aa(lp1952
g28
(g32
S'\xbcp\xbc\xff\xeb\xafw?'
p1953
tp1954
Rp1955
aa(lp1956
g28
(g32
S'\x866\xda#\x0e\xc2s?'
p1957
tp1958
Rp1959
aa(lp1960
g28
(g32
S'r\xec\xdc\xf0[\xed{?'
p1961
tp1962
Rp1963
aa(lp1964
g28
(g32
S's\xe3${\xf2\x03\x80?'
p1965
tp1966
Rp1967
aa(lp1968
g28
(g32
S'\x93\xfd\r\x97S\x0cw?'
p1969
tp1970
Rp1971
aa(lp1972
g28
(g32
S'NS%\xbd-\x8b}?'
p1973
tp1974
Rp1975
aasg114
(lp1976
(lp1977
g28
(g32
S'\xcf\xad\x7f\xb0\xb47r?'
p1978
tp1979
Rp1980
aag1977
a(lp1981
g28
(g32
S'\xc8p\x92\x0by\x80o?'
p1982
tp1983
Rp1984
aa(lp1985
g28
(g32
S'\xbd[Kk\xceB\x8b?'
p1986
tp1987
Rp1988
aa(lp1989
g28
(g32
S'\x93]z\'\x0e"\xae?'
p1990
tp1991
Rp1992
aa(lp1993
g28
(g32
S'\xd6\x8c[\x8c\x8e\xe7\x81?'
p1994
tp1995
Rp1996
aa(lp1997
g28
(g32
S'a\xef\xc91]\x85\x98?'
p1998
tp1999
Rp2000
aa(lp2001
g28
(g32
S'\xfeM\xa3L\xd6$\xa4?'
p2002
tp2003
Rp2004
aa(lp2005
g28
(g32
S'\xf8\x0c\x90\x8d\xd6\xad\x84?'
p2006
tp2007
Rp2008
aa(lp2009
g28
(g32
S'\x83\xa2\x87VmN\xba?'
p2010
tp2011
Rp2012
aa(lp2013
g28
(g32
S'Nm\xf2b\x82\x82\xa1?'
p2014
tp2015
Rp2016
aa(lp2017
g28
(g32
S':\x15\xccS=L\xb0?'
p2018
tp2019
Rp2020
aa(lp2021
g28
(g32
S'$g\xe4\xfe\xed\xaf\xa6?'
p2022
tp2023
Rp2024
aa(lp2025
g28
(g32
S'\x93\xbb\xd6\xa5N\xa9\xab?'
p2026
tp2027
Rp2028
aa(lp2029
g28
(g32
S'\xd5bu/\x9b\x96\xa6?'
p2030
tp2031
Rp2032
aa(lp2033
g28
(g32
S'.R\xb7Y\xcd\xcb\x92?'
p2034
tp2035
Rp2036
aa(lp2037
g28
(g32
S'Mhs+\x00\xe7\xa8?'
p2038
tp2039
Rp2040
aa(lp2041
g28
(g32
S'\xa5\xbc\xe2\x1e\xe1\x11\xa8?'
p2042
tp2043
Rp2044
aa(lp2045
g28
(g32
S"K\x80'\xd9\xbe\x13\x9d?"
p2046
tp2047
Rp2048
aa(lp2049
g28
(g32
S'\xfb\xc3k\xf9"#\x9c?'
p2050
tp2051
Rp2052
aa(lp2053
g28
(g32
S'\xaeVm+c@\xa3?'
p2054
tp2055
Rp2056
aasg196
(lp2057
F16.345252990722656
aF16.345252990722656
aF15.482583999633789
aF17.412721872329712
aF16.84334111213684
aF15.18508505821228
aF20.056555032730103
aF16.876091957092285
aF18.128551959991455
aF17.068197011947632
aF20.051095962524414
aF14.344789028167725
aF19.520025968551636
aF18.15618896484375
aF18.25581693649292
aF22.397157907485962
aF13.348052978515625
aF14.17026400566101
aF15.640462875366211
aF20.07878303527832
aF21.605581998825073
assS'X4'
p2058
(dp2059
g3
(lp2060
(lp2061
I91
aag2061
a(lp2062
I91
aa(lp2063
I92
aa(lp2064
I91
aa(lp2065
I92
aa(lp2066
I91
aa(lp2067
I95
aa(lp2068
I92
aa(lp2069
I94
aa(lp2070
I91
aa(lp2071
I91
aa(lp2072
I91
aa(lp2073
I91
aa(lp2074
I93
aa(lp2075
I92
aa(lp2076
I91
aa(lp2077
I95
aa(lp2078
I92
aa(lp2079
I92
aa(lp2080
I93
aasg25
(lp2081
(lp2082
g28
(g32
S'\xc4\xbd\x12\xa8\x1d=z?'
p2083
tp2084
Rp2085
aag2082
a(lp2086
g28
(g32
S't}\xe1\xe7Y\x80\x7f?'
p2087
tp2088
Rp2089
aa(lp2090
g28
(g32
S'\xc8f\x95\x04\xf1\x17\x82?'
p2091
tp2092
Rp2093
aa(lp2094
g28
(g32
S'\xb2\x9f\xe2\x9cO\x03\x85?'
p2095
tp2096
Rp2097
aa(lp2098
g28
(g32
S'\xad\x0e\xe4\xd7\xd7r\x94?'
p2099
tp2100
Rp2101
aa(lp2102
g28
(g32
S'G\xd6eO\x14\x93\x9d?'
p2103
tp2104
Rp2105
aa(lp2106
g28
(g32
S'\xa2a`q\xe6\xc6\x80?'
p2107
tp2108
Rp2109
aa(lp2110
g28
(g32
S'\xb9\xc3\xc7\xa8\x19\xf5\x83?'
p2111
tp2112
Rp2113
aa(lp2114
g28
(g32
S'\xa2\x87\xaeS.Y\x82?'
p2115
tp2116
Rp2117
aa(lp2118
g28
(g32
S'(\xcc^a[F\x90?'
p2119
tp2120
Rp2121
aa(lp2122
g28
(g32
S'V\xcbe9\x8d[{?'
p2123
tp2124
Rp2125
aa(lp2126
g28
(g32
S'\xe0\xeeT\x91\x98\xd0\x86?'
p2127
tp2128
Rp2129
aa(lp2130
g28
(g32
S'\xdb%\x95\xd0\x90\x86\x82?'
p2131
tp2132
Rp2133
aa(lp2134
g28
(g32
S'\x12yvzg\xcaw?'
p2135
tp2136
Rp2137
aa(lp2138
g28
(g32
S'F8\x8a\xba\xa7b\x84?'
p2139
tp2140
Rp2141
aa(lp2142
g28
(g32
S'\xdeT\xff\x84#\xf5\x97?'
p2143
tp2144
Rp2145
aa(lp2146
g28
(g32
S'\x141\x86\xdbzK\x88?'
p2147
tp2148
Rp2149
aa(lp2150
g28
(g32
S'0\x9d\xfd\xbf\xf6\xa8\x85?'
p2151
tp2152
Rp2153
aa(lp2154
g28
(g32
S'\x8e_\xfe\xf8}\xach?'
p2155
tp2156
Rp2157
aa(lp2158
g28
(g32
S'F\xd9_\xb3\x85V\x8a?'
p2159
tp2160
Rp2161
aasg114
(lp2162
(lp2163
g28
(g32
S'\x1d\xd1x\xc0Q\x02~?'
p2164
tp2165
Rp2166
aag2163
a(lp2167
g28
(g32
S'[ju^\x18\x88\x94?'
p2168
tp2169
Rp2170
aa(lp2171
g28
(g32
S'\x83t\xeb5\xdf\xa9\xa2?'
p2172
tp2173
Rp2174
aa(lp2175
g28
(g32
S'3\xa5\xd5\xa5c\x8f\xa3?'
p2176
tp2177
Rp2178
aa(lp2179
g28
(g32
S"-\xe2\xaf+'A\xa9?"
p2180
tp2181
Rp2182
aa(lp2183
g28
(g32
S'W\xe6\xbcK\xa0\xfdl?'
p2184
tp2185
Rp2186
aa(lp2187
g28
(g32
S'\\9G\xe8\xa5)o?'
p2188
tp2189
Rp2190
aa(lp2191
g28
(g32
S'\t\xa9\xa5\xf9\x10\xc0\x95?'
p2192
tp2193
Rp2194
aa(lp2195
g28
(g32
S'&\x8682\xd7)u?'
p2196
tp2197
Rp2198
aa(lp2199
g28
(g32
S'N&\x83\xbdr\xd2\x99?'
p2200
tp2201
Rp2202
aa(lp2203
g28
(g32
S'\xd4\xa4\xc2\x95\xc6\x8e\x8d?'
p2204
tp2205
Rp2206
aa(lp2207
g28
(g32
S'(\xb6\x8dQ\x8d\x89\x93?'
p2208
tp2209
Rp2210
aa(lp2211
g28
(g32
S'\xe4~\t\x80\xe2\rs?'
p2212
tp2213
Rp2214
aa(lp2215
g28
(g32
S']u\xcf\x80F\xect?'
p2216
tp2217
Rp2218
aa(lp2219
g28
(g32
S'd\x84\xd5-Q\xa3\x92?'
p2220
tp2221
Rp2222
aa(lp2223
g28
(g32
S'\xe4\xc5o&\x08\xac\xad?'
p2224
tp2225
Rp2226
aa(lp2227
g28
(g32
S'\xd3=X(\xfbU\x85?'
p2228
tp2229
Rp2230
aa(lp2231
g28
(g32
S'{j\xe2\xff\x088\x90?'
p2232
tp2233
Rp2234
aa(lp2235
g28
(g32
S'\x96\xfd\xc0\xc2\xe6\xc2\xaa?'
p2236
tp2237
Rp2238
aa(lp2239
g28
(g32
S'@\xecCSj\x89\x9d?'
p2240
tp2241
Rp2242
aasg196
(lp2243
F16.089040994644165
aF16.089040994644165
aF18.320636987686157
aF18.821474075317383
aF16.138777017593384
aF18.77422308921814
aF16.71938705444336
aF16.593878984451294
aF16.709882974624634
aF19.82453203201294
aF24.288604974746704
aF19.5185649394989
aF16.30030608177185
aF17.39126992225647
aF19.298285007476807
aF16.95806097984314
aF22.94242000579834
aF18.228506088256836
aF14.971328973770142
aF15.444275856018066
aF17.11526393890381
assS'X5'
p2244
(dp2245
g3
(lp2246
(lp2247
I91
aag2247
a(lp2248
I96
aa(lp2249
I91
aa(lp2250
I91
aa(lp2251
I92
aa(lp2252
I92
aa(lp2253
I96
aa(lp2254
I93
aa(lp2255
I92
aa(lp2256
I96
aa(lp2257
I91
aa(lp2258
I95
aa(lp2259
I93
aa(lp2260
I91
aa(lp2261
I92
aa(lp2262
I95
aa(lp2263
I93
aa(lp2264
I97
aa(lp2265
I94
aa(lp2266
I93
aasg25
(lp2267
(lp2268
g28
(g32
S'EO\\\x84\x91\xbe\x81?'
p2269
tp2270
Rp2271
aag2268
a(lp2272
g28
(g32
S'\xd4/\xa5\x90\xf9\x02\x94?'
p2273
tp2274
Rp2275
aa(lp2276
g28
(g32
S'~\x96&&\x83r\x94?'
p2277
tp2278
Rp2279
aa(lp2280
g28
(g32
S'\x8a\xcf7G\xab\x89\x83?'
p2281
tp2282
Rp2283
aa(lp2284
g28
(g32
S'\x0e\xca\xa3\xb0u\xa3p?'
p2285
tp2286
Rp2287
aa(lp2288
g28
(g32
S'\xfe\xbf\xe66*\x00\x92?'
p2289
tp2290
Rp2291
aa(lp2292
g28
(g32
S'#uP\x81l<\x9b?'
p2293
tp2294
Rp2295
aa(lp2296
g28
(g32
S'pm:S\x96<\x9b?'
p2297
tp2298
Rp2299
aa(lp2300
g28
(g32
S'\xb8]\x11\x11\x92\x03\x8d?'
p2301
tp2302
Rp2303
aa(lp2304
g28
(g32
S'\xfc\x1d\x9cE\x84\xee\x8b?'
p2305
tp2306
Rp2307
aa(lp2308
g28
(g32
S'\xce\xc9\x8cm\x00\x91\x8a?'
p2309
tp2310
Rp2311
aa(lp2312
g28
(g32
S'\x07=\xd6\xce\xd7\xe0\x8c?'
p2313
tp2314
Rp2315
aa(lp2316
g28
(g32
S'^\xd1\xed\xdc\x02I\x92?'
p2317
tp2318
Rp2319
aa(lp2320
g28
(g32
S'\xb4\x10\x97\x81\x1c\x9e\x82?'
p2321
tp2322
Rp2323
aa(lp2324
g28
(g32
S'\xe6b\xc8p;A\xa4?'
p2325
tp2326
Rp2327
aa(lp2328
g28
(g32
S'\x1ef\x08b\x03:\x89?'
p2329
tp2330
Rp2331
aa(lp2332
g28
(g32
S'1\x16\xd3\x910\x06\x8e?'
p2333
tp2334
Rp2335
aa(lp2336
g28
(g32
S'\xb6\xd6a\xa0\xdc\xac\x82?'
p2337
tp2338
Rp2339
aa(lp2340
g28
(g32
S'\x16\xb2W\xc6e\xdb\x80?'
p2341
tp2342
Rp2343
aa(lp2344
g28
(g32
S'\xd7\x1c\xd8i:\x8b\x8b?'
p2345
tp2346
Rp2347
aasg114
(lp2348
(lp2349
g28
(g32
S'\xb4Q\xf8\x8d\x8ez\xa4?'
p2350
tp2351
Rp2352
aag2349
a(lp2353
g28
(g32
S'\x81\x94x\xa8\xe6\n\xb3?'
p2354
tp2355
Rp2356
aa(lp2357
g28
(g32
S'}\xb7\xb7\xe1\xe5\xde\xaf?'
p2358
tp2359
Rp2360
aa(lp2361
g28
(g32
S'\x00\x1d\xb7\xb3FG\x9d?'
p2362
tp2363
Rp2364
aa(lp2365
g28
(g32
S'\\H\xb8\xa2\xf1\xdc\xc0?'
p2366
tp2367
Rp2368
aa(lp2369
g28
(g32
S'\xc1]\x08\xe6\xfb~\x9d?'
p2370
tp2371
Rp2372
aa(lp2373
g28
(g32
S'\x00\x00\x00\x00\x00\x00\x00\x00'
p2374
tp2375
Rp2376
aa(lp2377
g28
(g32
S'\x00\x00\x00\x00\x00\x00\x00\x00'
p2378
tp2379
Rp2380
aa(lp2381
g28
(g32
S'\xa5~haQ\xa8\x86?'
p2382
tp2383
Rp2384
aa(lp2385
g28
(g32
S'\xbdc#\xb8\x98\xbc\xa3?'
p2386
tp2387
Rp2388
aa(lp2389
g28
(g32
S'\xa2\xd0\xa7\xca,\x01\x94?'
p2390
tp2391
Rp2392
aa(lp2393
g28
(g32
S'\n\xd7\xba\xec\x815\xa9?'
p2394
tp2395
Rp2396
aa(lp2397
g28
(g32
S'\xb5\xbc$L\xc9%\xa3?'
p2398
tp2399
Rp2400
aa(lp2401
g28
(g32
S'\xd0\xe3\xb6\x13]\x9c\x98?'
p2402
tp2403
Rp2404
aa(lp2405
g28
(g32
S'C\x00a?\xe8\xd0\x86?'
p2406
tp2407
Rp2408
aa(lp2409
g28
(g32
S'4\xfa-\xcd\x7f\xfa\x90?'
p2410
tp2411
Rp2412
aa(lp2413
g28
(g32
S'FW\x05s\x9ah\x89?'
p2414
tp2415
Rp2416
aa(lp2417
g28
(g32
S'\xeb|H\x89\xdf\x12\xac?'
p2418
tp2419
Rp2420
aa(lp2421
g28
(g32
S'\x8b\xf7\xf1O\x9f\x8e\xa4?'
p2422
tp2423
Rp2424
aa(lp2425
g28
(g32
S'<y\x80{\xca[\x9d?'
p2426
tp2427
Rp2428
aasg196
(lp2429
F18.198765993118286
aF18.198765993118286
aF18.083979845046997
aF11.960203170776367
aF19.645740032196045
aF12.989697933197021
aF18.945183038711548
aF16.460202932357788
aF17.24549698829651
aF14.5501389503479
aF15.300939798355103
aF13.314185857772827
aF17.676069021224976
aF18.0432391166687
aF14.15181016921997
aF17.11849093437195
aF16.43850302696228
aF13.52015995979309
aF16.43188714981079
aF15.664849996566772
aF18.002537965774536
ass.