(dp0
S'M2'
p1
(dp2
S'evals'
p3
(lp4
I92
asS'igd'
p5
(lp6
cnumpy.core.multiarray
scalar
p7
(cnumpy
dtype
p8
(S'f8'
p9
I0
I1
tp10
Rp11
(I3
S'<'
p12
NNNI-1
I-1
I0
tp13
bS'4\n\xfe(\x92)\x81?'
p14
tp15
Rp16
asS'gen_dist'
p17
(lp18
g7
(g11
S'\xf9\xe7\xfc\x8f\xe7\xber?'
p19
tp20
Rp21
asS'time'
p22
F26.897974967956543
ss.