(dp0
S'P3'
p1
(dp2
S'evals'
p3
(lp4
I91
asS'igd'
p5
(lp6
cnumpy.core.multiarray
scalar
p7
(cnumpy
dtype
p8
(S'f8'
p9
I0
I1
tp10
Rp11
(I3
S'<'
p12
NNNI-1
I-1
I0
tp13
bS'\x00\xe9I\x9a\x8b\xcc\xb2?'
p14
tp15
Rp16
asS'gen_dist'
p17
(lp18
g7
(g11
S'\xed\xa0\xd2;\xab\x94\x8d?'
p19
tp20
Rp21
asS'time'
p22
F15.236260890960693
ss.