(dp0
S'P3'
p1
(dp2
S'evals'
p3
(lp4
I91
asS'igd'
p5
(lp6
cnumpy.core.multiarray
scalar
p7
(cnumpy
dtype
p8
(S'f8'
p9
I0
I1
tp10
Rp11
(I3
S'<'
p12
NNNI-1
I-1
I0
tp13
bS'\xc5\xe3\xb1\x19\xf1\x1b\xb1?'
p14
tp15
Rp16
asS'gen_dist'
p17
(lp18
g7
(g11
S'p\xcf\xcf-\xe4\xcd\x82?'
p19
tp20
Rp21
asS'time'
p22
F17.65925908088684
ss.