(dp0
S'X2'
p1
(dp2
S'evals'
p3
(lp4
I96
asS'igd'
p5
(lp6
cnumpy.core.multiarray
scalar
p7
(cnumpy
dtype
p8
(S'f8'
p9
I0
I1
tp10
Rp11
(I3
S'<'
p12
NNNI-1
I-1
I0
tp13
bS'\x8a]G\xd2\x0f\xa9\x7f?'
p14
tp15
Rp16
asS'gen_dist'
p17
(lp18
g7
(g11
S'j\xca\x92\t\xff\xd8q?'
p19
tp20
Rp21
asS'time'
p22
F17.117393016815186
ss.