(dp0
S'X4'
p1
(dp2
S'evals'
p3
(lp4
I92
asS'igd'
p5
(lp6
cnumpy.core.multiarray
scalar
p7
(cnumpy
dtype
p8
(S'f8'
p9
I0
I1
tp10
Rp11
(I3
S'<'
p12
NNNI-1
I-1
I0
tp13
bS'\xb9\xc3\xc7\xa8\x19\xf5\x83?'
p14
tp15
Rp16
asS'gen_dist'
p17
(lp18
g7
(g11
S'\t\xa9\xa5\xf9\x10\xc0\x95?'
p19
tp20
Rp21
asS'time'
p22
F16.709882974624634
ss.