(dp0
S'M3'
p1
(dp2
S'evals'
p3
(lp4
I33
asS'igd'
p5
(lp6
cnumpy.core.multiarray
scalar
p7
(cnumpy
dtype
p8
(S'f8'
p9
I0
I1
tp10
Rp11
(I3
S'<'
p12
NNNI-1
I-1
I0
tp13
bS'\x08\xe1\xd3\xd0n\xf9\xa0?'
p14
tp15
Rp16
asS'gen_dist'
p17
(lp18
g7
(g11
S'\xd6\x93\x1c\xfe\xe7\xe9\x86?'
p19
tp20
Rp21
asS'time'
p22
F19.894386053085327
ss.