(dp0
S'X1'
p1
(dp2
S'evals'
p3
(lp4
I35
asS'igd'
p5
(lp6
cnumpy.core.multiarray
scalar
p7
(cnumpy
dtype
p8
(S'f8'
p9
I0
I1
tp10
Rp11
(I3
S'<'
p12
NNNI-1
I-1
I0
tp13
bS'\xc9\x8c \xb5\x8c\xa1\x90?'
p14
tp15
Rp16
asS'gen_dist'
p17
(lp18
g7
(g11
S'\xdfK\x8d\xed\x94\xda\xa3?'
p19
tp20
Rp21
asS'time'
p22
F4.637523889541626
ss.