(dp0
S'X1'
p1
(dp2
S'evals'
p3
(lp4
I34
asS'igd'
p5
(lp6
cnumpy.core.multiarray
scalar
p7
(cnumpy
dtype
p8
(S'f8'
p9
I0
I1
tp10
Rp11
(I3
S'<'
p12
NNNI-1
I-1
I0
tp13
bS'\x8a\x8c\xb1$\x10\xb8\x84?'
p14
tp15
Rp16
asS'gen_dist'
p17
(lp18
g7
(g11
S'\x89\x15f\x03\x1a\xa3\xbc?'
p19
tp20
Rp21
asS'time'
p22
F3.9813530445098877
ss.