(dp0
S'X2'
p1
(dp2
S'evals'
p3
(lp4
I31
asS'igd'
p5
(lp6
cnumpy.core.multiarray
scalar
p7
(cnumpy
dtype
p8
(S'f8'
p9
I0
I1
tp10
Rp11
(I3
S'<'
p12
NNNI-1
I-1
I0
tp13
bS'Q+\xd9)\xe2G\xa3?'
p14
tp15
Rp16
asS'gen_dist'
p17
(lp18
g7
(g11
S'\xa1\xda\xcd\x19\x8a\xbd\xac?'
p19
tp20
Rp21
asS'time'
p22
F4.697225093841553
ss.