(dp0
S'X5'
p1
(dp2
S'evals'
p3
(lp4
I31
asS'igd'
p5
(lp6
cnumpy.core.multiarray
scalar
p7
(cnumpy
dtype
p8
(S'f8'
p9
I0
I1
tp10
Rp11
(I3
S'<'
p12
NNNI-1
I-1
I0
tp13
bS'\xaa\xd0\xc0\xa6\xe9\x9b\x90?'
p14
tp15
Rp16
asS'gen_dist'
p17
(lp18
g7
(g11
S'\xbdk(y\xda\xf6\xa6?'
p19
tp20
Rp21
asS'time'
p22
F5.0131189823150635
ss.