(dp0
S'P2'
p1
(dp2
S'evals'
p3
(lp4
(lp5
I92
aag5
a(lp6
I91
aa(lp7
I91
aa(lp8
I92
aa(lp9
I91
aa(lp10
I94
aa(lp11
I93
aa(lp12
I94
aa(lp13
I93
aa(lp14
I93
aa(lp15
I93
aa(lp16
I91
aa(lp17
I91
aa(lp18
I92
aa(lp19
I94
aa(lp20
I91
aa(lp21
I94
aa(lp22
I92
aa(lp23
I93
aa(lp24
I95
aasS'igd'
p25
(lp26
(lp27
cnumpy.core.multiarray
scalar
p28
(cnumpy
dtype
p29
(S'f8'
p30
I0
I1
tp31
Rp32
(I3
S'<'
p33
NNNI-1
I-1
I0
tp34
bS'J\xb8?\x91\x04\x17\xd3?'
p35
tp36
Rp37
aag27
a(lp38
g28
(g32
S'\x00\xa1?\xba\xf2\x13\xb0?'
p39
tp40
Rp41
aa(lp42
g28
(g32
S'\xef\xa2\x0c\xbe\xef\x02\xa2?'
p43
tp44
Rp45
aa(lp46
g28
(g32
S'\xce\xae\xe6\xcf\n\xc3\xa6?'
p47
tp48
Rp49
aa(lp50
g28
(g32
S'")z\xebIr\xb3?'
p51
tp52
Rp53
aa(lp54
g28
(g32
S'\xe5\x939\xd2 c\xa0?'
p55
tp56
Rp57
aa(lp58
g28
(g32
S'\x05[:@y\xbal?'
p59
tp60
Rp61
aa(lp62
g28
(g32
S'j\x04\xcf\x93U\x91\xc1?'
p63
tp64
Rp65
aa(lp66
g28
(g32
S'\x88\x89x=\x928\xcc?'
p67
tp68
Rp69
aa(lp70
g28
(g32
S'\xf2\x98\x0b\xae\xfeT\xb9?'
p71
tp72
Rp73
aa(lp74
g28
(g32
S'\xc3\x8e\x0be\xd8\xbb\xcf?'
p75
tp76
Rp77
aa(lp78
g28
(g32
S'\xf3\xe7`*p\x9a\xc1?'
p79
tp80
Rp81
aa(lp82
g28
(g32
S'(9\xaa#A\xbb\xc1?'
p83
tp84
Rp85
aa(lp86
g28
(g32
S'@\xb6%U?\x84\xc9?'
p87
tp88
Rp89
aa(lp90
g28
(g32
S'\xf8\xe2\xb1\x12q\r\xce?'
p91
tp92
Rp93
aa(lp94
g28
(g32
S'\xbe5\x1e\xd6\xecR\xc7?'
p95
tp96
Rp97
aa(lp98
g28
(g32
S'\xc6\xb9\xf2\xbd\xbc\xdc\xd0?'
p99
tp100
Rp101
aa(lp102
g28
(g32
S'~\x87T~F\xa6\x93?'
p103
tp104
Rp105
aa(lp106
g28
(g32
S'\xbd\x97k\x98\xcf\xc5\xc9?'
p107
tp108
Rp109
aa(lp110
g28
(g32
S'\x1b\xd8\xec\xfa\x13\xbb\xa1?'
p111
tp112
Rp113
aasS'gen_dist'
p114
(lp115
(lp116
g28
(g32
S'\x04L(C\x98\xe7\xd1?'
p117
tp118
Rp119
aag116
a(lp120
g28
(g32
S'k\x9e\x1aM\x97`\xbf?'
p121
tp122
Rp123
aa(lp124
g28
(g32
S'!\xdeT\x11\xe9\xb9\xbb?'
p125
tp126
Rp127
aa(lp128
g28
(g32
S'\xdd\xa8l\xe05r\xc1?'
p129
tp130
Rp131
aa(lp132
g28
(g32
S':*\xbe>\xcf:\xc6?'
p133
tp134
Rp135
aa(lp136
g28
(g32
S'\x0f\xca\x10\x17\xa2\xbe\xc6?'
p137
tp138
Rp139
aa(lp140
g28
(g32
S'\x83\x91mSA\xda\xa7?'
p141
tp142
Rp143
aa(lp144
g28
(g32
S'\x84\x02\x18\xe5(x\xc4?'
p145
tp146
Rp147
aa(lp148
g28
(g32
S'\x95\x83Yz\x1a(\xcd?'
p149
tp150
Rp151
aa(lp152
g28
(g32
S'<\x1e\xfe\xbcfN\xcb?'
p153
tp154
Rp155
aa(lp156
g28
(g32
S'\x97\xdc\x82{\xe7F\xc2?'
p157
tp158
Rp159
aa(lp160
g28
(g32
S'\xce\x15\t\x00\xaa\x9b\xc6?'
p161
tp162
Rp163
aa(lp164
g28
(g32
S'g\xcf5(,\xf3\xc5?'
p165
tp166
Rp167
aa(lp168
g28
(g32
S'\xf1\x89\xa0y\xcc\xc3\xc1?'
p169
tp170
Rp171
aa(lp172
g28
(g32
S'O\x17Ic\x1c\x06\xc7?'
p173
tp174
Rp175
aa(lp176
g28
(g32
S'\x86\x93\xea,wf\xc3?'
p177
tp178
Rp179
aa(lp180
g28
(g32
S'\x88\r.4\xf8!\xc1?'
p181
tp182
Rp183
aa(lp184
g28
(g32
S'\x80C\xa6\xe9\xef\xc5\xb1?'
p185
tp186
Rp187
aa(lp188
g28
(g32
S'H\xde\xc2`\x98\xbb\xc7?'
p189
tp190
Rp191
aa(lp192
g28
(g32
S'\xa0\x80A\xc0\xfd\x1f\xbc?'
p193
tp194
Rp195
aasS'time'
p196
(lp197
F17.676042079925537
aF17.676042079925537
aF13.152369976043701
aF16.988157033920288
aF17.19339108467102
aF13.379209995269775
aF14.913819074630737
aF16.62759804725647
aF13.502876043319702
aF15.499542951583862
aF20.96090006828308
aF17.410293102264404
aF13.551798105239868
aF14.781704187393188
aF15.396483898162842
aF15.611479997634888
aF12.490832090377808
aF13.862332105636597
aF14.010371923446655
aF13.96139907836914
aF14.517590999603271
assS'P3'
p198
(dp199
g3
(lp200
(lp201
I92
aag201
a(lp202
I91
aa(lp203
I94
aa(lp204
I91
aa(lp205
I91
aa(lp206
I91
aa(lp207
I91
aa(lp208
I91
aa(lp209
I94
aa(lp210
I93
aa(lp211
I92
aa(lp212
I92
aa(lp213
I91
aa(lp214
I91
aa(lp215
I91
aa(lp216
I92
aa(lp217
I91
aa(lp218
I91
aa(lp219
I95
aa(lp220
I92
aasg25
(lp221
(lp222
g28
(g32
S'\xa4\xe7\xb4\xf8\xe0\x99\xb1?'
p223
tp224
Rp225
aag222
a(lp226
g28
(g32
S'\xaf\xed\x07\r\xe3\x98\xb0?'
p227
tp228
Rp229
aa(lp230
g28
(g32
S'O\xe1E\n\x93\xc4\x9a?'
p231
tp232
Rp233
aa(lp234
g28
(g32
S'?\xac\x7f\xc9\xad\x0c\xa8?'
p235
tp236
Rp237
aa(lp238
g28
(g32
S'\t\xb5Il\x89\xb6\xb2?'
p239
tp240
Rp241
aa(lp242
g28
(g32
S'd\x90c\xd0\x90#\xa6?'
p243
tp244
Rp245
aa(lp246
g28
(g32
S'\xcd\xd46\x83e\x98\xa4?'
p247
tp248
Rp249
aa(lp250
g28
(g32
S'\x99\x93\x84;\xb3@\xac?'
p251
tp252
Rp253
aa(lp254
g28
(g32
S'\xbe\xb3P=\x93h\xa1?'
p255
tp256
Rp257
aa(lp258
g28
(g32
S'\xb1i\xfb)?\xfd\x9b?'
p259
tp260
Rp261
aa(lp262
g28
(g32
S'\xe9\x1b\x88\xb0:^\xa8?'
p263
tp264
Rp265
aa(lp266
g28
(g32
S'\x07\xb8\xfd\x90\x01 \xa4?'
p267
tp268
Rp269
aa(lp270
g28
(g32
S'\x93\xe8.\xe2\xc3\xd4\x9c?'
p271
tp272
Rp273
aa(lp274
g28
(g32
S'=\x06/\xb0\xd5%\xa2?'
p275
tp276
Rp277
aa(lp278
g28
(g32
S'\x1d\x96\xa3)\xd1#\xa2?'
p279
tp280
Rp281
aa(lp282
g28
(g32
S'\x95\xd7\xa7z\x18\xff\xa1?'
p283
tp284
Rp285
aa(lp286
g28
(g32
S'\xe1y\xc4gD1\x9b?'
p287
tp288
Rp289
aa(lp290
g28
(g32
S'\xd9\xbay\x9d"=\xa2?'
p291
tp292
Rp293
aa(lp294
g28
(g32
S'\x04\xf0gW\xbc\n\xa8?'
p295
tp296
Rp297
aa(lp298
g28
(g32
S'\xd6P\x1e\xc7\xc8+\xb1?'
p299
tp300
Rp301
aasg114
(lp302
(lp303
g28
(g32
S'\x81\x95\x8d\xfaf\xf0\xa0?'
p304
tp305
Rp306
aag303
a(lp307
g28
(g32
S'k\x9b\xc7X\xe6%w?'
p308
tp309
Rp310
aa(lp311
g28
(g32
S"'\x82\xf3WR\xdc\x9b?"
p312
tp313
Rp314
aa(lp315
g28
(g32
S'\xd8\x93\xea\xe6k\x88j?'
p316
tp317
Rp318
aa(lp319
g28
(g32
S'K\x0499m\xe2g?'
p320
tp321
Rp322
aa(lp323
g28
(g32
S'2\xe5\xad\xefI\x84\x9b?'
p324
tp325
Rp326
aa(lp327
g28
(g32
S'r\x1aA7Zf\xa7?'
p328
tp329
Rp330
aa(lp331
g28
(g32
S':h\x17\x92\xf9\x1e}?'
p332
tp333
Rp334
aa(lp335
g28
(g32
S'7\x81\x94g\x91\x0b\xa4?'
p336
tp337
Rp338
aa(lp339
g28
(g32
S'q$\r\x0e\xaef\xa2?'
p340
tp341
Rp342
aa(lp343
g28
(g32
S'\x00\xe6c@\x8e-\x9e?'
p344
tp345
Rp346
aa(lp347
g28
(g32
S'\x7f\xffI4\xfcd\xa3?'
p348
tp349
Rp350
aa(lp351
g28
(g32
S'-r\xbe\x8b\xb16\x9f?'
p352
tp353
Rp354
aa(lp355
g28
(g32
S'\xa8i\xb9\x83\xd1\r\x9f?'
p356
tp357
Rp358
aa(lp359
g28
(g32
S'd\x1b\x05\xf0\xe3\x1a\x90?'
p360
tp361
Rp362
aa(lp363
g28
(g32
S'rO@\x03\xb8\xa5\x9f?'
p364
tp365
Rp366
aa(lp367
g28
(g32
S'\x07rXb\xb1d\xa7?'
p368
tp369
Rp370
aa(lp371
g28
(g32
S'\xbf\xcd\x8c\xff\x86n\xa0?'
p372
tp373
Rp374
aa(lp375
g28
(g32
S'\x8a{L\x96\x17\x01\x9d?'
p376
tp377
Rp378
aa(lp379
g28
(g32
S'\x00\x00\x00\x00\x00\x00\x00\x00'
p380
tp381
Rp382
aasg196
(lp383
F14.801525115966797
aF14.801525115966797
aF13.724303960800171
aF14.49197006225586
aF18.531628131866455
aF18.528047800064087
aF17.209837913513184
aF13.9376220703125
aF13.958649158477783
aF16.895601987838745
aF16.704747915267944
aF16.21152400970459
aF17.055357933044434
aF17.551647901535034
aF14.540641069412231
aF14.353661060333252
aF16.21489691734314
aF18.575765132904053
aF17.566280841827393
aF16.892728805541992
aF19.14140486717224
assS'P1'
p384
(dp385
g3
(lp386
(lp387
I93
aag387
a(lp388
I91
aa(lp389
I93
aa(lp390
I91
aa(lp391
I91
aa(lp392
I93
aa(lp393
I92
aa(lp394
I92
aa(lp395
I91
aa(lp396
I91
aa(lp397
I94
aa(lp398
I91
aa(lp399
I94
aa(lp400
I93
aa(lp401
I93
aa(lp402
I92
aa(lp403
I92
aa(lp404
I92
aa(lp405
I91
aa(lp406
I93
aasg25
(lp407
(lp408
g28
(g32
S'\x16\x1f\xd3K\xbc\xd2\x8f?'
p409
tp410
Rp411
aag408
a(lp412
g28
(g32
S'~G\x8e\x94\x90\x84\x8d?'
p413
tp414
Rp415
aa(lp416
g28
(g32
S'\x05\xec\x03L\xb7g\xa9?'
p417
tp418
Rp419
aa(lp420
g28
(g32
S'\x92=b\xc8\xd0\x06\xb1?'
p421
tp422
Rp423
aa(lp424
g28
(g32
S'N!\x16\x88r\xf5\xa0?'
p425
tp426
Rp427
aa(lp428
g28
(g32
S'\xf6M\xce\x1f\x1e:\xa4?'
p429
tp430
Rp431
aa(lp432
g28
(g32
S'\x1ebBB\xb5\xe8\xa0?'
p433
tp434
Rp435
aa(lp436
g28
(g32
S'\xba\x84/[\xbe\xe8\xa4?'
p437
tp438
Rp439
aa(lp440
g28
(g32
S'\xa5C7\xc4\xda\x1e\x93?'
p441
tp442
Rp443
aa(lp444
g28
(g32
S'\xee\xbc\xc1\x91=\xda\x91?'
p445
tp446
Rp447
aa(lp448
g28
(g32
S'\x92\xee\x95\x8cyi\xa1?'
p449
tp450
Rp451
aa(lp452
g28
(g32
S'62\xd4\x1a\xd0\xb6\xbd?'
p453
tp454
Rp455
aa(lp456
g28
(g32
S'3\x07\x8e.J\xc3\x9b?'
p457
tp458
Rp459
aa(lp460
g28
(g32
S'\xeb\x1c\x86\xf6Y\xb6\xa0?'
p461
tp462
Rp463
aa(lp464
g28
(g32
S'\xc5F\xc2\xbeA\x13\xc4?'
p465
tp466
Rp467
aa(lp468
g28
(g32
S'8\x83\xe1\xf3=\x9d\x9a?'
p469
tp470
Rp471
aa(lp472
g28
(g32
S'\n\xd9\xcb\x9d\xd2\xc4\xab?'
p473
tp474
Rp475
aa(lp476
g28
(g32
S'\xaa2\x1f}\xf0t\xa7?'
p477
tp478
Rp479
aa(lp480
g28
(g32
S'\xb6\xc8+\xcfv]\xa5?'
p481
tp482
Rp483
aa(lp484
g28
(g32
S'n\x8e\x92oS\x05\xa9?'
p485
tp486
Rp487
aasg114
(lp488
(lp489
g28
(g32
S'>\x15C\x97\xec\x95D?'
p490
tp491
Rp492
aag489
a(lp493
g28
(g32
S'\x9a$.Cn"\x85?'
p494
tp495
Rp496
aa(lp497
g28
(g32
S')\xd7\xd4\xde\x1eb}?'
p498
tp499
Rp500
aa(lp501
g28
(g32
S'\x9bE\xcf\xff\xaeb}?'
p502
tp503
Rp504
aa(lp505
g28
(g32
S'\x16\x16x\x9f\x08@a?'
p506
tp507
Rp508
aa(lp509
g28
(g32
S'bnLt\x93f\x84?'
p510
tp511
Rp512
aa(lp513
g28
(g32
S'\xaf\x1baL:\xb7T?'
p514
tp515
Rp516
aa(lp517
g28
(g32
S'\x0c\xf3{38\x06\x96?'
p518
tp519
Rp520
aa(lp521
g28
(g32
S'\xd4m\x9b\xb53\x87\x9a?'
p522
tp523
Rp524
aa(lp525
g28
(g32
S'\x8fB\x0f\xe2]\x173?'
p526
tp527
Rp528
aa(lp529
g28
(g32
S'\xa1\xf5\x1bY\x19+X?'
p530
tp531
Rp532
aa(lp533
g28
(g32
S'\x14\xa2\xf5\xe5-$t?'
p534
tp535
Rp536
aa(lp537
g28
(g32
S'\xfe\x8f\xef\x86eB\x86?'
p538
tp539
Rp540
aa(lp541
g28
(g32
S'>\x15C\x97\xec\x95D?'
p542
tp543
Rp544
aa(lp545
g28
(g32
S'Q\x91*\x89\xe7\xf5\n?'
p546
tp547
Rp548
aa(lp549
g28
(g32
S'[D\x89V\x06bV?'
p550
tp551
Rp552
aa(lp553
g28
(g32
S'HQ\xa7\x8b=\xd9\x90?'
p554
tp555
Rp556
aa(lp557
g28
(g32
S'\xb5\x7f\x10\x93\xa6\xe3\x91?'
p558
tp559
Rp560
aa(lp561
g28
(g32
S'#\x89v\x82\xdc\xc8h?'
p562
tp563
Rp564
aa(lp565
g28
(g32
S'9\xf8\xd4\x02S b?'
p566
tp567
Rp568
aasg196
(lp569
F14.17733097076416
aF14.17733097076416
aF13.7894868850708
aF14.004460096359253
aF18.226765871047974
aF17.663132905960083
aF16.156261920928955
aF18.729635000228882
aF12.83936619758606
aF13.309022188186646
aF13.99681305885315
aF12.28828501701355
aF14.049933910369873
aF18.234950065612793
aF18.447092056274414
aF18.555196046829224
aF17.743041038513184
aF15.29721999168396
aF17.514973878860474
aF17.39381504058838
aF14.787765979766846
assS'P4'
p570
(dp571
g3
(lp572
(lp573
I93
aag573
a(lp574
I93
aa(lp575
I92
aa(lp576
I92
aa(lp577
I94
aa(lp578
I91
aa(lp579
I92
aa(lp580
I93
aa(lp581
I91
aa(lp582
I93
aa(lp583
I93
aa(lp584
I93
aa(lp585
I93
aa(lp586
I91
aa(lp587
I94
aa(lp588
I91
aa(lp589
I91
aa(lp590
I92
aa(lp591
I92
aa(lp592
I94
aasg25
(lp593
(lp594
g28
(g32
S'\xfa\xf2\n\xf8\x1b\x9e\xe7?'
p595
tp596
Rp597
aag594
a(lp598
g28
(g32
S'\xb3X\x07\x89\x91\xae\xe9?'
p599
tp600
Rp601
aa(lp602
g28
(g32
S'\xb3X\x07\x89\x91\xae\xe9?'
p603
tp604
Rp605
aa(lp606
g28
(g32
S'e\x955am\x03\xe9?'
p607
tp608
Rp609
aa(lp610
g28
(g32
S'\xa2\x1a\x82\xff\xe4\xe6\xe8?'
p611
tp612
Rp613
aa(lp614
g28
(g32
S'\x0e\xa3\x80\xba\x01\x15\xe9?'
p615
tp616
Rp617
aa(lp618
g28
(g32
S'P\xb8\xee\xc0\x10\x06\xe8?'
p619
tp620
Rp621
aa(lp622
g28
(g32
S'B|\x0f\xba\xa5\x1d\xe9?'
p623
tp624
Rp625
aa(lp626
g28
(g32
S'9\xd3\x1b\x94j\x19\xe9?'
p627
tp628
Rp629
aa(lp630
g28
(g32
S'\xd6\x01\xc1\x07\x8c\xae\xe9?'
p631
tp632
Rp633
aa(lp634
g28
(g32
S']t\x8f\x83W[\xe8?'
p635
tp636
Rp637
aa(lp638
g28
(g32
S'\x92\xb4\xc2:\x98\x16\xe9?'
p639
tp640
Rp641
aa(lp642
g28
(g32
S'\xd0\x0b-\x9f\xbf_\xe9?'
p643
tp644
Rp645
aa(lp646
g28
(g32
S'J;\xfe\xda\xe1\xba\xe9?'
p647
tp648
Rp649
aa(lp650
g28
(g32
S'\x1e\x9fh\xc3\xa4\x8a\xe4?'
p651
tp652
Rp653
aa(lp654
g28
(g32
S'\x13\xc9Z\nb\xa89?'
p655
tp656
Rp657
aa(lp658
g28
(g32
S'\x91X\x81\x02\xf1\x0b\xe9?'
p659
tp660
Rp661
aa(lp662
g28
(g32
S'\x9d.d\xc8\xffs\xe7?'
p663
tp664
Rp665
aa(lp666
g28
(g32
S'\xc8\x14\xa1\x06m\x06\xe8?'
p667
tp668
Rp669
aa(lp670
g28
(g32
S'e\x955am\x03\xe9?'
p671
tp672
Rp673
aasg114
(lp674
(lp675
g28
(g32
S"'\xfd\xb9\xe3]9\xbe?"
p676
tp677
Rp678
aag675
a(lp679
g28
(g32
S'\x00\x00\x00\x00\x00\x00\x00\x00'
p680
tp681
Rp682
aa(lp683
g28
(g32
S'\xdaR\xbb\x93\xa0\xc3\x93?'
p684
tp685
Rp686
aa(lp687
g28
(g32
S'\xe5\x91$\xf2\x19\xe6\xbc?'
p688
tp689
Rp690
aa(lp691
g28
(g32
S'\x9fTF\x8eQ\x95\x86?'
p692
tp693
Rp694
aa(lp695
g28
(g32
S'\xf0\\\xc3\xff\x9f\xf2\xc0?'
p696
tp697
Rp698
aa(lp699
g28
(g32
S'A\\\x13\xe6\xb1\x1b\xb3?'
p700
tp701
Rp702
aa(lp703
g28
(g32
S'\xe9\xd9\xcc\x08\xd5\xb9\xce?'
p704
tp705
Rp706
aa(lp707
g28
(g32
S'\x12;\xe2*\x0e\xe0d?'
p708
tp709
Rp710
aa(lp711
g28
(g32
S"\xd5\xbe\xcbI\x9a\xb2'?"
p712
tp713
Rp714
aa(lp715
g28
(g32
S'r\xa09)IT\xbb?'
p716
tp717
Rp718
aa(lp719
g28
(g32
S'zWy?\xfd\xecl?'
p720
tp721
Rp722
aa(lp723
g28
(g32
S'pD\xa0f3\xd8\xd2?'
p724
tp725
Rp726
aa(lp727
g28
(g32
S'\xd3\xaa \xca\xd5\xea\xd1?'
p728
tp729
Rp730
aa(lp731
g28
(g32
S'\xa6\xa3e\x8b\xbdy\xbd?'
p732
tp733
Rp734
aa(lp735
g28
(g32
S'd\xa3\x9a\x9a\xcaJ\xbf?'
p736
tp737
Rp738
aa(lp739
g28
(g32
S'\xbf_\x83\xf2\xc4-\xc9?'
p740
tp741
Rp742
aa(lp743
g28
(g32
S'\xc2*\xc4\xfd\xd4-\xcb?'
p744
tp745
Rp746
aa(lp747
g28
(g32
S'\xa3\xabv\x17+\xff\xc0?'
p748
tp749
Rp750
aa(lp751
g28
(g32
S'U\x0c\xb7sHK\x7f?'
p752
tp753
Rp754
aasg196
(lp755
F15.35839295387268
aF15.35839295387268
aF14.772381067276001
aF15.695445775985718
aF18.041467905044556
aF14.056954860687256
aF16.650053024291992
aF21.16828680038452
aF17.0945041179657
aF14.49400782585144
aF18.098337173461914
aF17.46729016304016
aF16.937906980514526
aF15.44899582862854
aF15.795309066772461
aF15.786216020584106
aF17.835309982299805
aF17.037609100341797
aF15.320563077926636
aF15.274003028869629
aF14.552186012268066
assS'M4'
p756
(dp757
g3
(lp758
(lp759
I93
aag759
a(lp760
I91
aa(lp761
I93
aa(lp762
I93
aa(lp763
I95
aa(lp764
I91
aa(lp765
I95
aa(lp766
I92
aa(lp767
I91
aa(lp768
I91
aa(lp769
I92
aa(lp770
I92
aa(lp771
I91
aa(lp772
I95
aa(lp773
I96
aa(lp774
I94
aa(lp775
I92
aa(lp776
I94
aa(lp777
I93
aa(lp778
I91
aasg25
(lp779
(lp780
g28
(g32
S'\x1e\xa1\xc9\x15v"\x86?'
p781
tp782
Rp783
aag780
a(lp784
g28
(g32
S'\x9a\xa1\x89\x97\x9f\xf9\x8c?'
p785
tp786
Rp787
aa(lp788
g28
(g32
S'\x85\x04\x8aK<\x11\x8a?'
p789
tp790
Rp791
aa(lp792
g28
(g32
S':\xc8c\x04\x84\x90\x8b?'
p793
tp794
Rp795
aa(lp796
g28
(g32
S'8jN\x0f\xfc\xd5\x87?'
p797
tp798
Rp799
aa(lp800
g28
(g32
S'\xa58\xf0\x1f\x04!\x91?'
p801
tp802
Rp803
aa(lp804
g28
(g32
S'\x1a\x17\x9e\x0f\xb4\xff\x89?'
p805
tp806
Rp807
aa(lp808
g28
(g32
S'\x9fADiS\x1b\x8a?'
p809
tp810
Rp811
aa(lp812
g28
(g32
S'h\xc1\x93wyj\x83?'
p813
tp814
Rp815
aa(lp816
g28
(g32
S'\xbaU\xd5\xee=\x8a\x8d?'
p817
tp818
Rp819
aa(lp820
g28
(g32
S'\xe4?\x90\xc5S\xa1\x88?'
p821
tp822
Rp823
aa(lp824
g28
(g32
S'\xff\x1e\xfeT\x04\xa7\x91?'
p825
tp826
Rp827
aa(lp828
g28
(g32
S'\xd3\x8e\xa3\xc7\xe4`\x89?'
p829
tp830
Rp831
aa(lp832
g28
(g32
S'\xb1G\xe0\xfe\xdd\xb9\x9a?'
p833
tp834
Rp835
aa(lp836
g28
(g32
S'ta\x1f\xe1\x93\xc6\x85?'
p837
tp838
Rp839
aa(lp840
g28
(g32
S'3\xd3H%\xa5\x07\x86?'
p841
tp842
Rp843
aa(lp844
g28
(g32
S'p\xfd\xb97\xa0\xac\xa3?'
p845
tp846
Rp847
aa(lp848
g28
(g32
S'\xf8f\x83\xddu\xf8\x8f?'
p849
tp850
Rp851
aa(lp852
g28
(g32
S'\xcfe\xdc\xd5\xabW\x88?'
p853
tp854
Rp855
aa(lp856
g28
(g32
S'_\xcc^\x8c\xb8i\x8b?'
p857
tp858
Rp859
aasg114
(lp860
(lp861
g28
(g32
S'\xecoX\xf4dBi?'
p862
tp863
Rp864
aag861
a(lp865
g28
(g32
S'\xff\xec\xf3\xf4$\xb8p?'
p866
tp867
Rp868
aa(lp869
g28
(g32
S'\xe6(XZ\xb3\xdbl?'
p870
tp871
Rp872
aa(lp873
g28
(g32
S'\xe3\x84Pk\x91\xacs?'
p874
tp875
Rp876
aa(lp877
g28
(g32
S'\x0f+x\xb3\xc2Oq?'
p878
tp879
Rp880
aa(lp881
g28
(g32
S'\x84>\x9d\x95\x81\xe8a?'
p882
tp883
Rp884
aa(lp885
g28
(g32
S'\xdf\x17\xa2e\x08\x1ax?'
p886
tp887
Rp888
aa(lp889
g28
(g32
S'J\t\xd73\x90lp?'
p890
tp891
Rp892
aa(lp893
g28
(g32
S's\xb3\xa1\t$\x7ft?'
p894
tp895
Rp896
aa(lp897
g28
(g32
S'\x08\xbb;\xee\x80Zr?'
p898
tp899
Rp900
aa(lp901
g28
(g32
S'\xaejy\xbf\xc5A|?'
p902
tp903
Rp904
aa(lp905
g28
(g32
S'q%\rgI\xb4h?'
p906
tp907
Rp908
aa(lp909
g28
(g32
S'\x00\x94\x9exK5o?'
p910
tp911
Rp912
aa(lp913
g28
(g32
S'\xe6\xa9\x96-\x15\xf1q?'
p914
tp915
Rp916
aa(lp917
g28
(g32
S';^\xeb\x16;\xeeu?'
p918
tp919
Rp920
aa(lp921
g28
(g32
S',A\xc3\xa8.\x8at?'
p922
tp923
Rp924
aa(lp925
g28
(g32
S'\xb9\x98\xd9l\x9e\xb5p?'
p926
tp927
Rp928
aa(lp929
g28
(g32
S'\xfa\x06\x02\xe48\x98q?'
p930
tp931
Rp932
aa(lp933
g28
(g32
S'\x97\xdeR.]\x97p?'
p934
tp935
Rp936
aa(lp937
g28
(g32
S'/\xe9-\xcd\x1c.t?'
p938
tp939
Rp940
aasg196
(lp941
F27.140024185180664
aF27.140024185180664
aF28.645052194595337
aF28.357324838638306
aF27.209769010543823
aF26.698983907699585
aF23.405174016952515
aF29.308699131011963
aF29.37151789665222
aF25.03555393218994
aF27.710367918014526
aF25.615345001220703
aF27.999430894851685
aF26.74422311782837
aF27.73996615409851
aF24.788947105407715
aF25.64130187034607
aF25.00007200241089
aF25.166574954986572
aF29.908625841140747
aF27.76557993888855
assS'M1'
p942
(dp943
g3
(lp944
(lp945
I91
aag945
a(lp946
I91
aa(lp947
I92
aa(lp948
I92
aa(lp949
I92
aa(lp950
I91
aa(lp951
I92
aa(lp952
I91
aa(lp953
I91
aa(lp954
I94
aa(lp955
I91
aa(lp956
I93
aa(lp957
I91
aa(lp958
I94
aa(lp959
I94
aa(lp960
I94
aa(lp961
I92
aa(lp962
I91
aa(lp963
I92
aa(lp964
I94
aasg25
(lp965
(lp966
g28
(g32
S'\x1e=@.\x12\xfd\x88?'
p967
tp968
Rp969
aag966
a(lp970
g28
(g32
S'9\xa4\xdas\x99E\x8f?'
p971
tp972
Rp973
aa(lp974
g28
(g32
S'-\x13\xbc/\xab\xc2\x85?'
p975
tp976
Rp977
aa(lp978
g28
(g32
S'\xc1\xd1\xa6\x7f\xb2\x9c\x8a?'
p979
tp980
Rp981
aa(lp982
g28
(g32
S'\xf6\x0f\xee\x9e_I\x90?'
p983
tp984
Rp985
aa(lp986
g28
(g32
S'\xee[\x05\xb5r\x10\x89?'
p987
tp988
Rp989
aa(lp990
g28
(g32
S'%I\xe5\xe3\xc6\xc4\x90?'
p991
tp992
Rp993
aa(lp994
g28
(g32
S'\xf7\xefQ\xe7\xf2$\x90?'
p995
tp996
Rp997
aa(lp998
g28
(g32
S'\x99cT:\xd8\xf8\x8f?'
p999
tp1000
Rp1001
aa(lp1002
g28
(g32
S'\x81v\x92\xc0\x98\x0f\x90?'
p1003
tp1004
Rp1005
aa(lp1006
g28
(g32
S'[\xbd\xa6\xfdS\xbd\x8b?'
p1007
tp1008
Rp1009
aa(lp1010
g28
(g32
S'UM\x8a\xc6\xd8k\x91?'
p1011
tp1012
Rp1013
aa(lp1014
g28
(g32
S'\xf4\xb8\xb5\xda\xc3#\x93?'
p1015
tp1016
Rp1017
aa(lp1018
g28
(g32
S'\x10\xe8K\x1d\x7fA\x8f?'
p1019
tp1020
Rp1021
aa(lp1022
g28
(g32
S'\xa0\x86\xdb\xbd\x17\xca\x90?'
p1023
tp1024
Rp1025
aa(lp1026
g28
(g32
S'\xf0\xb5,(\x05\x1d\x8d?'
p1027
tp1028
Rp1029
aa(lp1030
g28
(g32
S'\xfb\x8ee\xed\xf1q\x96?'
p1031
tp1032
Rp1033
aa(lp1034
g28
(g32
S'H\xc5\x93\xb8x\x12\x92?'
p1035
tp1036
Rp1037
aa(lp1038
g28
(g32
S'?\xb3\xbe&@]\x98?'
p1039
tp1040
Rp1041
aa(lp1042
g28
(g32
S'\xd9>\xa9\xb1:\x8a\x8a?'
p1043
tp1044
Rp1045
aasg114
(lp1046
(lp1047
g28
(g32
S'|\x18\xa4c\xfb e?'
p1048
tp1049
Rp1050
aag1047
a(lp1051
g28
(g32
S'1@\xc3\xbe)=\x84?'
p1052
tp1053
Rp1054
aa(lp1055
g28
(g32
S'xB?\xde\xaaIw?'
p1056
tp1057
Rp1058
aa(lp1059
g28
(g32
S'\xd7\x06\x1dTq\xd1u?'
p1060
tp1061
Rp1062
aa(lp1063
g28
(g32
S'l\x0cN(\xe7E\x81?'
p1064
tp1065
Rp1066
aa(lp1067
g28
(g32
S'\x99`\x9db\x8e@\x81?'
p1068
tp1069
Rp1070
aa(lp1071
g28
(g32
S'\x8f\x13Q\x0c\xcdS\x80?'
p1072
tp1073
Rp1074
aa(lp1075
g28
(g32
S'!v\xbb\xaf|pw?'
p1076
tp1077
Rp1078
aa(lp1079
g28
(g32
S'ez\xc6\xd4\x13\x8e}?'
p1080
tp1081
Rp1082
aa(lp1083
g28
(g32
S'j\x9e\xef\xd0\xd1Xq?'
p1084
tp1085
Rp1086
aa(lp1087
g28
(g32
S'>`\xf1Q\x12\xf0\x85?'
p1088
tp1089
Rp1090
aa(lp1091
g28
(g32
S'\xcf\x14G\x18\xa7-\x7f?'
p1092
tp1093
Rp1094
aa(lp1095
g28
(g32
S'z$L\x7f\x18Yx?'
p1096
tp1097
Rp1098
aa(lp1099
g28
(g32
S'M\xcb\xf9LW\xc1\x80?'
p1100
tp1101
Rp1102
aa(lp1103
g28
(g32
S')y\xbe\xe4U&~?'
p1104
tp1105
Rp1106
aa(lp1107
g28
(g32
S'\x00\xf6xNMx}?'
p1108
tp1109
Rp1110
aa(lp1111
g28
(g32
S'\xa3g\xcb\r\xc9,\x80?'
p1112
tp1113
Rp1114
aa(lp1115
g28
(g32
S'\xd1\xaa\xf9"Z\x1b\x81?'
p1116
tp1117
Rp1118
aa(lp1119
g28
(g32
S'*\xfcU\x9e\xdb\xd8r?'
p1120
tp1121
Rp1122
aa(lp1123
g28
(g32
S'\x92\xd1\xb3[\xca\x0b}?'
p1124
tp1125
Rp1126
aasg196
(lp1127
F30.100375175476074
aF30.100375175476074
aF29.24909520149231
aF25.844187021255493
aF28.389325857162476
aF26.41412115097046
aF25.86706304550171
aF33.38554787635803
aF29.001235008239746
aF28.203181982040405
aF34.748777866363525
aF26.4753520488739
aF27.860602140426636
aF31.875317096710205
aF29.40238380432129
aF29.414450883865356
aF26.24942111968994
aF32.33152794837952
aF31.98540210723877
aF26.71444296836853
aF29.576918125152588
assS'M3'
p1128
(dp1129
g3
(lp1130
(lp1131
I93
aag1131
a(lp1132
I93
aa(lp1133
I96
aa(lp1134
I94
aa(lp1135
I93
aa(lp1136
I91
aa(lp1137
I94
aa(lp1138
I96
aa(lp1139
I94
aa(lp1140
I92
aa(lp1141
I91
aa(lp1142
I95
aa(lp1143
I91
aa(lp1144
I91
aa(lp1145
I93
aa(lp1146
I92
aa(lp1147
I91
aa(lp1148
I94
aa(lp1149
I92
aa(lp1150
I91
aasg25
(lp1151
(lp1152
g28
(g32
S'\xf0\x87ad\xdf \x84?'
p1153
tp1154
Rp1155
aag1152
a(lp1156
g28
(g32
S'\x11\xb5\x82\xe9\xf9\xc3\x8c?'
p1157
tp1158
Rp1159
aa(lp1160
g28
(g32
S'\xe0`7\xcf\xb0\x0b\x94?'
p1161
tp1162
Rp1163
aa(lp1164
g28
(g32
S't\x89\x9ev\xe8\x1e\x8f?'
p1165
tp1166
Rp1167
aa(lp1168
g28
(g32
S'\xbd\x1c\xcfJ\xfc\x89\x85?'
p1169
tp1170
Rp1171
aa(lp1172
g28
(g32
S'\xf8\xda\xffAb_\x90?'
p1173
tp1174
Rp1175
aa(lp1176
g28
(g32
S'\x14\x1a\xa9\x87c\xef\x8a?'
p1177
tp1178
Rp1179
aa(lp1180
g28
(g32
S'\xbfa\xdf\xd3*\xfa~?'
p1181
tp1182
Rp1183
aa(lp1184
g28
(g32
S'm\x15\xeb\xafE%\x83?'
p1185
tp1186
Rp1187
aa(lp1188
g28
(g32
S'\x9a\xd9J"\x87\xc7\x94?'
p1189
tp1190
Rp1191
aa(lp1192
g28
(g32
S'7!\xa4\xa6i\x1d\x8a?'
p1193
tp1194
Rp1195
aa(lp1196
g28
(g32
S'\x1d\x85\x1e|rD\x82?'
p1197
tp1198
Rp1199
aa(lp1200
g28
(g32
S'\xe43\x13E\x89\x06\x86?'
p1201
tp1202
Rp1203
aa(lp1204
g28
(g32
S'\x11\xff\x8a\xc1$\x92\x9a?'
p1205
tp1206
Rp1207
aa(lp1208
g28
(g32
S'\xf7\xf12`\xa4\xde\x93?'
p1209
tp1210
Rp1211
aa(lp1212
g28
(g32
S'zP\xcd\x9bvR\x88?'
p1213
tp1214
Rp1215
aa(lp1216
g28
(g32
S'r\\J\xab\xd8>\x8c?'
p1217
tp1218
Rp1219
aa(lp1220
g28
(g32
S'AW\x91\x05\xdc\xa2\x85?'
p1221
tp1222
Rp1223
aa(lp1224
g28
(g32
S'\xafG\xa7[&/\x99?'
p1225
tp1226
Rp1227
aa(lp1228
g28
(g32
S'\xcbr\xd4{\x83\x95\x82?'
p1229
tp1230
Rp1231
aasg114
(lp1232
(lp1233
g28
(g32
S"+\xf4\x07\xf8'\x1er?"
p1234
tp1235
Rp1236
aag1233
a(lp1237
g28
(g32
S'*\xa2\xc2\xc7r\xa8w?'
p1238
tp1239
Rp1240
aa(lp1241
g28
(g32
S'\x80\xa9\xd3\x89n\xafl?'
p1242
tp1243
Rp1244
aa(lp1245
g28
(g32
S'\xfb\xa6\xff\x0f\x7fcw?'
p1246
tp1247
Rp1248
aa(lp1249
g28
(g32
S'\xc4\xf8\x84\xd0/?s?'
p1250
tp1251
Rp1252
aa(lp1253
g28
(g32
S'ioT\xb2\xe7\xd3\x82?'
p1254
tp1255
Rp1256
aa(lp1257
g28
(g32
S'\x9d\xe3\xb4\x82\xacTr?'
p1258
tp1259
Rp1260
aa(lp1261
g28
(g32
S'\x04\x0fZ\xcb8\x17s?'
p1262
tp1263
Rp1264
aa(lp1265
g28
(g32
S'\xc5\x18\xa7d\x1a\xa6o?'
p1266
tp1267
Rp1268
aa(lp1269
g28
(g32
S'\x89\\\x7f+|,\x80?'
p1270
tp1271
Rp1272
aa(lp1273
g28
(g32
S'\xd5+\t\xab7xm?'
p1274
tp1275
Rp1276
aa(lp1277
g28
(g32
S'\t\xde\xec\xcfD3l?'
p1278
tp1279
Rp1280
aa(lp1281
g28
(g32
S'\r\xe2\x06e\x08Nj?'
p1282
tp1283
Rp1284
aa(lp1285
g28
(g32
S'\x8d\xfd4\xe6F\x01s?'
p1286
tp1287
Rp1288
aa(lp1289
g28
(g32
S'D>\x00\xc9\xd5\xcbv?'
p1290
tp1291
Rp1292
aa(lp1293
g28
(g32
S'*l\xa6\xe60\xe1s?'
p1294
tp1295
Rp1296
aa(lp1297
g28
(g32
S'F\x98\xd0]BWq?'
p1298
tp1299
Rp1300
aa(lp1301
g28
(g32
S'\xce\x84\xbc\x7f}\xb4u?'
p1302
tp1303
Rp1304
aa(lp1305
g28
(g32
S'5\x86v@\xc6in?'
p1306
tp1307
Rp1308
aa(lp1309
g28
(g32
S'\xf4\xd7\xc1\xd9\x90~q?'
p1310
tp1311
Rp1312
aasg196
(lp1313
F30.243331909179688
aF30.243331909179688
aF26.98838782310486
aF28.645344018936157
aF27.062916040420532
aF29.776093006134033
aF24.563068151474
aF25.549570083618164
aF30.20980405807495
aF29.4814670085907
aF30.154896020889282
aF29.738499879837036
aF31.36556601524353
aF27.59326195716858
aF27.720413208007812
aF30.96436905860901
aF25.03843593597412
aF27.06111788749695
aF30.02017593383789
aF27.15539789199829
aF26.776036024093628
assS'M2'
p1314
(dp1315
g3
(lp1316
(lp1317
I93
aag1317
a(lp1318
I91
aa(lp1319
I94
aa(lp1320
I91
aa(lp1321
I91
aa(lp1322
I95
aa(lp1323
I91
aa(lp1324
I92
aa(lp1325
I91
aa(lp1326
I93
aa(lp1327
I91
aa(lp1328
I92
aa(lp1329
I91
aa(lp1330
I91
aa(lp1331
I93
aa(lp1332
I91
aa(lp1333
I91
aa(lp1334
I93
aa(lp1335
I93
aa(lp1336
I91
aasg25
(lp1337
(lp1338
g28
(g32
S'\xc0\x97\x83\xcd\xcb\x7f\x8c?'
p1339
tp1340
Rp1341
aag1338
a(lp1342
g28
(g32
S'U\xf3\x0c\xc7\xf5\xe9\x84?'
p1343
tp1344
Rp1345
aa(lp1346
g28
(g32
S'\xe2\x95{\xd8\x81\xa5\x83?'
p1347
tp1348
Rp1349
aa(lp1350
g28
(g32
S"\xce'z\xc8\xea\xe0\x8f?"
p1351
tp1352
Rp1353
aa(lp1354
g28
(g32
S'\x95\xd9J\xfa\x04*\x8f?'
p1355
tp1356
Rp1357
aa(lp1358
g28
(g32
S'\x923W\x18\xbcu\x81?'
p1359
tp1360
Rp1361
aa(lp1362
g28
(g32
S'Q\x1a\r\xa2,\x95}?'
p1363
tp1364
Rp1365
aa(lp1366
g28
(g32
S'y\xcf\xdd\xafj\x0f\x8c?'
p1367
tp1368
Rp1369
aa(lp1370
g28
(g32
S'\xf2\x8aR\x83\x11\xe7~?'
p1371
tp1372
Rp1373
aa(lp1374
g28
(g32
S'\xf5\x13-\x92\xbei\x89?'
p1375
tp1376
Rp1377
aa(lp1378
g28
(g32
S'\xd0\xdb\xa4c\x12\x01\x87?'
p1379
tp1380
Rp1381
aa(lp1382
g28
(g32
S'\xbd)tw\xb6\xe5\x80?'
p1383
tp1384
Rp1385
aa(lp1386
g28
(g32
S'o\xf1|\xa9\xdaS\x82?'
p1387
tp1388
Rp1389
aa(lp1390
g28
(g32
S'UNr\xa8\xd5?\x85?'
p1391
tp1392
Rp1393
aa(lp1394
g28
(g32
S'2?r>}\xf1\x81?'
p1395
tp1396
Rp1397
aa(lp1398
g28
(g32
S'\x0f\xbe\x0f\x8ct\x1d\x84?'
p1399
tp1400
Rp1401
aa(lp1402
g28
(g32
S'\xc7\x84=\xad\xbb?\x81?'
p1403
tp1404
Rp1405
aa(lp1406
g28
(g32
S'\xb4\x97\x9c("\x10\x7f?'
p1407
tp1408
Rp1409
aa(lp1410
g28
(g32
S'\x03\x1c\xae\xc4\x93\x97\x84?'
p1411
tp1412
Rp1413
aa(lp1414
g28
(g32
S'\xa6\xbc\xdaaT\xd8\x80?'
p1415
tp1416
Rp1417
aasg114
(lp1418
(lp1419
g28
(g32
S'?o\xb1\xe1\x90\xa5r?'
p1420
tp1421
Rp1422
aag1419
a(lp1423
g28
(g32
S'k;PL\xff\xd8s?'
p1424
tp1425
Rp1426
aa(lp1427
g28
(g32
S'\xffy\xce\x9f\x87\x93t?'
p1428
tp1429
Rp1430
aa(lp1431
g28
(g32
S'\xdf\xec\x7f\xc8\x8f>y?'
p1432
tp1433
Rp1434
aa(lp1435
g28
(g32
S'\xabU\x89\x18>\x10n?'
p1436
tp1437
Rp1438
aa(lp1439
g28
(g32
S'f\xa2f\x01\x1b&q?'
p1440
tp1441
Rp1442
aa(lp1443
g28
(g32
S'B\xa8\x14u\xa7#o?'
p1444
tp1445
Rp1446
aa(lp1447
g28
(g32
S'y\xe6\xc5\xd3J*q?'
p1448
tp1449
Rp1450
aa(lp1451
g28
(g32
S'd!\x01\x1b\xad\xa5u?'
p1452
tp1453
Rp1454
aa(lp1455
g28
(g32
S'\xac?\xb6\xc3\xab\x81y?'
p1456
tp1457
Rp1458
aa(lp1459
g28
(g32
S'|\x12f\xf0`\x8by?'
p1460
tp1461
Rp1462
aa(lp1463
g28
(g32
S'\xa5\x8c\xc2\x92(\xf8r?'
p1464
tp1465
Rp1466
aa(lp1467
g28
(g32
S'\xe8\xd0(\x0em\x08t?'
p1468
tp1469
Rp1470
aa(lp1471
g28
(g32
S'_N8\xba\xc2\xd9n?'
p1472
tp1473
Rp1474
aa(lp1475
g28
(g32
S'\x19\xc9\xa2\x08X\xb6w?'
p1476
tp1477
Rp1478
aa(lp1479
g28
(g32
S'T=\x81\x96W\xb6c?'
p1480
tp1481
Rp1482
aa(lp1483
g28
(g32
S'\xe1\t\x149*?s?'
p1484
tp1485
Rp1486
aa(lp1487
g28
(g32
S'\xf0\xfe\x82\xb6\x14\x03\x80?'
p1488
tp1489
Rp1490
aa(lp1491
g28
(g32
S'\xc1\xf9w\x06t\xcel?'
p1492
tp1493
Rp1494
aa(lp1495
g28
(g32
S"\xb7\xd7&\xb7\x15'q?"
p1496
tp1497
Rp1498
aasg196
(lp1499
F27.56300711631775
aF27.56300711631775
aF30.649795055389404
aF30.38961696624756
aF26.869772911071777
aF28.578109979629517
aF23.988367080688477
aF25.574671030044556
aF28.523019075393677
aF28.300307035446167
aF26.84580683708191
aF34.39950609207153
aF27.20036506652832
aF30.602668046951294
aF29.479236125946045
aF30.167469024658203
aF28.628922939300537
aF25.76235818862915
aF26.076387882232666
aF28.65956997871399
aF27.51813316345215
assS'X2'
p1500
(dp1501
g3
(lp1502
(lp1503
I94
aag1503
a(lp1504
I91
aa(lp1505
I91
aa(lp1506
I92
aa(lp1507
I92
aa(lp1508
I94
aa(lp1509
I94
aa(lp1510
I91
aa(lp1511
I94
aa(lp1512
I91
aa(lp1513
I91
aa(lp1514
I94
aa(lp1515
I92
aa(lp1516
I93
aa(lp1517
I92
aa(lp1518
I92
aa(lp1519
I92
aa(lp1520
I92
aa(lp1521
I92
aa(lp1522
I92
aasg25
(lp1523
(lp1524
g28
(g32
S'\xe2\xe6\t;e\x06\x92?'
p1525
tp1526
Rp1527
aag1524
a(lp1528
g28
(g32
S't\xe0F\x9cV\x19\x91?'
p1529
tp1530
Rp1531
aa(lp1532
g28
(g32
S'j_b,\x06\xcb\x9a?'
p1533
tp1534
Rp1535
aa(lp1536
g28
(g32
S'\xf6\x8a\x1f\x18\xe1u\x80?'
p1537
tp1538
Rp1539
aa(lp1540
g28
(g32
S'\xfbT\x18\xe1\x9f\x92|?'
p1541
tp1542
Rp1543
aa(lp1544
g28
(g32
S'\x02H\xc9\xf4\xc9\x86\x82?'
p1545
tp1546
Rp1547
aa(lp1548
g28
(g32
S'\xedSl9V7\x80?'
p1549
tp1550
Rp1551
aa(lp1552
g28
(g32
S'X\xce\xd7.\xfb\xf8\x8d?'
p1553
tp1554
Rp1555
aa(lp1556
g28
(g32
S'\xe7\xedl\tKq\x94?'
p1557
tp1558
Rp1559
aa(lp1560
g28
(g32
S'47\xeb\x94>/\x96?'
p1561
tp1562
Rp1563
aa(lp1564
g28
(g32
S'r1ux\xe7\x00\x88?'
p1565
tp1566
Rp1567
aa(lp1568
g28
(g32
S'\x92\x9b\xd8\xef\x1c\x92\x90?'
p1569
tp1570
Rp1571
aa(lp1572
g28
(g32
S'\x9bL\t\x0e.\xa1\x7f?'
p1573
tp1574
Rp1575
aa(lp1576
g28
(g32
S'e\xb2\x8f\xca9\x8c\x84?'
p1577
tp1578
Rp1579
aa(lp1580
g28
(g32
S'\x9c\xdc\n\x88\x1b\xe6\x81?'
p1581
tp1582
Rp1583
aa(lp1584
g28
(g32
S'\xaa\x0e\r\x14\xd1\x17\x91?'
p1585
tp1586
Rp1587
aa(lp1588
g28
(g32
S'\x8bVH\xa7\x04G\x8a?'
p1589
tp1590
Rp1591
aa(lp1592
g28
(g32
S'J|q\xd0\xa2/\x8a?'
p1593
tp1594
Rp1595
aa(lp1596
g28
(g32
S'9\x15\xb4\xde\xb3\xca\x92?'
p1597
tp1598
Rp1599
aa(lp1600
g28
(g32
S'\xf9\xa3\x85w\xd2\xdb\x88?'
p1601
tp1602
Rp1603
aasg114
(lp1604
(lp1605
g28
(g32
S'\x00\xf4\xdd\r\x0b\xd8\x84?'
p1606
tp1607
Rp1608
aag1605
a(lp1609
g28
(g32
S'$f[j\xa96\xad?'
p1610
tp1611
Rp1612
aa(lp1613
g28
(g32
S'_\xf0\xf0\x81\xa3\xbc\x88?'
p1614
tp1615
Rp1616
aa(lp1617
g28
(g32
S'Pn\xf6<\x90\x92\x94?'
p1618
tp1619
Rp1620
aa(lp1621
g28
(g32
S'\x8c\x81k}C\xf8H?'
p1622
tp1623
Rp1624
aa(lp1625
g28
(g32
S'\xe4E{\x06R\x10\x89?'
p1626
tp1627
Rp1628
aa(lp1629
g28
(g32
S'\xfe\x1f2\xbc$\xbd\x95?'
p1630
tp1631
Rp1632
aa(lp1633
g28
(g32
S'x\xdd\xcf\xca\xe1\x86\x8a?'
p1634
tp1635
Rp1636
aa(lp1637
g28
(g32
S'P\xf2Z\xd5\x08H\xa1?'
p1638
tp1639
Rp1640
aa(lp1641
g28
(g32
S'\xef|\xef\xf2\xb2\x9f\x9e?'
p1642
tp1643
Rp1644
aa(lp1645
g28
(g32
S'\nc!ol*\x95?'
p1646
tp1647
Rp1648
aa(lp1649
g28
(g32
S'\xa9\xb1\xfd\x0b\x93\x13\xbb?'
p1650
tp1651
Rp1652
aa(lp1653
g28
(g32
S'\xb3\x12\xb3\x06\x92L\xa5?'
p1654
tp1655
Rp1656
aa(lp1657
g28
(g32
S'\xc0\x07)\xba\xec\x83\x96?'
p1658
tp1659
Rp1660
aa(lp1661
g28
(g32
S"\xf2S\xe6.'\xe5\x90?"
p1662
tp1663
Rp1664
aa(lp1665
g28
(g32
S'\x9a\x8eE\xfd\x9c\xae\x90?'
p1666
tp1667
Rp1668
aa(lp1669
g28
(g32
S'\x92Ig\x1e\x9d\xe7{?'
p1670
tp1671
Rp1672
aa(lp1673
g28
(g32
S'\xeeAg\xf1\xa3\x9c\xa6?'
p1674
tp1675
Rp1676
aa(lp1677
g28
(g32
S'\xfe52$\x7fO\x9a?'
p1678
tp1679
Rp1680
aa(lp1681
g28
(g32
S'Y\x19H\x12\xf1\xe2\x95?'
p1682
tp1683
Rp1684
aasg196
(lp1685
F17.482810974121094
aF17.482810974121094
aF13.489450931549072
aF14.351325988769531
aF15.284136056900024
aF18.570383071899414
aF17.721861124038696
aF15.369488000869751
aF18.64480495452881
aF15.416239976882935
aF17.244104146957397
aF17.36570692062378
aF14.689041137695312
aF13.487099170684814
aF18.929563999176025
aF17.933856964111328
aF18.775403022766113
aF24.41106104850769
aF15.202537059783936
aF13.933159112930298
aF13.4372079372406
assS'X3'
p1686
(dp1687
g3
(lp1688
(lp1689
I91
aag1689
a(lp1690
I93
aa(lp1691
I91
aa(lp1692
I92
aa(lp1693
I99
aa(lp1694
I91
aa(lp1695
I94
aa(lp1696
I92
aa(lp1697
I91
aa(lp1698
I96
aa(lp1699
I94
aa(lp1700
I93
aa(lp1701
I92
aa(lp1702
I92
aa(lp1703
I91
aa(lp1704
I91
aa(lp1705
I93
aa(lp1706
I92
aa(lp1707
I92
aa(lp1708
I91
aasg25
(lp1709
(lp1710
g28
(g32
S'5i\t\xe4\xcex\x80?'
p1711
tp1712
Rp1713
aag1710
a(lp1714
g28
(g32
S'M\xc4\xbeH\xfa\x9b\x89?'
p1715
tp1716
Rp1717
aa(lp1718
g28
(g32
S'\x90E\x03\x13\xa7\xa2}?'
p1719
tp1720
Rp1721
aa(lp1722
g28
(g32
S'Q\x05y\xf2:\xa4j?'
p1723
tp1724
Rp1725
aa(lp1726
g28
(g32
S'<O\xa9&E\xb7\x7f?'
p1727
tp1728
Rp1729
aa(lp1730
g28
(g32
S'\t\xc3}gc\x80u?'
p1731
tp1732
Rp1733
aa(lp1734
g28
(g32
S'\xcd\xb2\x08\xcd\xaaL\x8a?'
p1735
tp1736
Rp1737
aa(lp1738
g28
(g32
S'\xd5\xecq\xea\xbb\x03v?'
p1739
tp1740
Rp1741
aa(lp1742
g28
(g32
S'|\xdc\x16\xd6j\xd3w?'
p1743
tp1744
Rp1745
aa(lp1746
g28
(g32
S'\x19\xd7CVg\xa3a?'
p1747
tp1748
Rp1749
aa(lp1750
g28
(g32
S'"94\x9e\x0f\x07\x84?'
p1751
tp1752
Rp1753
aa(lp1754
g28
(g32
S'\xef#\x93=*0w?'
p1755
tp1756
Rp1757
aa(lp1758
g28
(g32
S'\xb7\xa3\r\xc9\tl\x81?'
p1759
tp1760
Rp1761
aa(lp1762
g28
(g32
S'`\xf7^\x8b\xdc\xb5s?'
p1763
tp1764
Rp1765
aa(lp1766
g28
(g32
S'\\2\x8fl\xd1\x7f\x81?'
p1767
tp1768
Rp1769
aa(lp1770
g28
(g32
S'\x91u+\x8f\x05\xa3d?'
p1771
tp1772
Rp1773
aa(lp1774
g28
(g32
S'4l\x08\xb3\xe5\xb7l?'
p1775
tp1776
Rp1777
aa(lp1778
g28
(g32
S'\xf7J(\x19\xe5hh?'
p1779
tp1780
Rp1781
aa(lp1782
g28
(g32
S'pAr\x82\x16\x8e\x7f?'
p1783
tp1784
Rp1785
aa(lp1786
g28
(g32
S'6\xa8\xa9\xef\xbb\x1fp?'
p1787
tp1788
Rp1789
aasg114
(lp1790
(lp1791
g28
(g32
S'W\x1bS\x1az\x03\x92?'
p1792
tp1793
Rp1794
aag1791
a(lp1795
g28
(g32
S'*Q\x17\xbe\xcbU\x11?'
p1796
tp1797
Rp1798
aa(lp1799
g28
(g32
S'fp\xcc\xc1\xeaV\x86?'
p1800
tp1801
Rp1802
aa(lp1803
g28
(g32
S'\x9a\xfa\xb4\xef\xcaSp?'
p1804
tp1805
Rp1806
aa(lp1807
g28
(g32
S'\x0b\xb1\x0eu\x0c\xf2{?'
p1808
tp1809
Rp1810
aa(lp1811
g28
(g32
S'\xd9\x85\x18t\xd3e\x86?'
p1812
tp1813
Rp1814
aa(lp1815
g28
(g32
S'\x0f\xfeCd\x8b\x83\x8c?'
p1816
tp1817
Rp1818
aa(lp1819
g28
(g32
S'\xdf9\x948\x17Dw?'
p1820
tp1821
Rp1822
aa(lp1823
g28
(g32
S'Z\xd5W\x86\x99(H?'
p1824
tp1825
Rp1826
aa(lp1827
g28
(g32
S'n\xa8Y"\xd8i8?'
p1828
tp1829
Rp1830
aa(lp1831
g28
(g32
S'?\xae\xb9\xd3\xaf\xe3q?'
p1832
tp1833
Rp1834
aa(lp1835
g28
(g32
S'jI\xa3\x0fW{Y?'
p1836
tp1837
Rp1838
aa(lp1839
g28
(g32
S'^\x98\xa0\xe8\xf2\xf8|?'
p1840
tp1841
Rp1842
aa(lp1843
g28
(g32
S'\xc8\xc6HA\xff\xe9\x8f?'
p1844
tp1845
Rp1846
aa(lp1847
g28
(g32
S':R\x87?\x80O\x80?'
p1848
tp1849
Rp1850
aa(lp1851
g28
(g32
S'\x10\x80\xe4\xb6\xbb\xb9}?'
p1852
tp1853
Rp1854
aa(lp1855
g28
(g32
S'\xb7\x86\xf6OY\xec\x7f?'
p1856
tp1857
Rp1858
aa(lp1859
g28
(g32
S'\x98\xfd\xff$\xd2>\x1b?'
p1860
tp1861
Rp1862
aa(lp1863
g28
(g32
S'\xc7\xf8\x80\xa3bA\x82?'
p1864
tp1865
Rp1866
aa(lp1867
g28
(g32
S's\x9da\xebo\xe1J?'
p1868
tp1869
Rp1870
aasg196
(lp1871
F17.12905716896057
aF17.12905716896057
aF16.190374851226807
aF15.345757007598877
aF15.627027988433838
aF16.747736930847168
aF13.4598069190979
aF18.016582012176514
aF14.245893955230713
aF17.89250087738037
aF14.297891855239868
aF16.2515230178833
aF16.262151956558228
aF16.522958040237427
aF14.399096965789795
aF21.68704891204834
aF14.707006931304932
aF27.408756971359253
aF21.492871046066284
aF15.461290121078491
aF15.216001987457275
assS'X1'
p1872
(dp1873
g3
(lp1874
(lp1875
I91
aag1875
a(lp1876
I93
aa(lp1877
I91
aa(lp1878
I92
aa(lp1879
I91
aa(lp1880
I93
aa(lp1881
I94
aa(lp1882
I92
aa(lp1883
I95
aa(lp1884
I92
aa(lp1885
I93
aa(lp1886
I92
aa(lp1887
I94
aa(lp1888
I93
aa(lp1889
I91
aa(lp1890
I93
aa(lp1891
I95
aa(lp1892
I94
aa(lp1893
I92
aa(lp1894
I91
aasg25
(lp1895
(lp1896
g28
(g32
S'L\xe0\x81\xf3u+\x86?'
p1897
tp1898
Rp1899
aag1896
a(lp1900
g28
(g32
S'Wn*(\r\xd6v?'
p1901
tp1902
Rp1903
aa(lp1904
g28
(g32
S'ZU,z\x10\xd3\x8b?'
p1905
tp1906
Rp1907
aa(lp1908
g28
(g32
S'\xf8\x9c\x10Qm\x1e\x8a?'
p1909
tp1910
Rp1911
aa(lp1912
g28
(g32
S'0\xd7\xb9%\xe5E\x84?'
p1913
tp1914
Rp1915
aa(lp1916
g28
(g32
S'\xa0\xb6MK\x12\xeap?'
p1917
tp1918
Rp1919
aa(lp1920
g28
(g32
S'\xde\xbe\xb9)\xc5R\x85?'
p1921
tp1922
Rp1923
aa(lp1924
g28
(g32
S'9\xfb\xcb\xcc&\x99\x8d?'
p1925
tp1926
Rp1927
aa(lp1928
g28
(g32
S'\xbc\xf2\xb7Zi3}?'
p1929
tp1930
Rp1931
aa(lp1932
g28
(g32
S'$\xed\xebV\x8eC~?'
p1933
tp1934
Rp1935
aa(lp1936
g28
(g32
S'J?\xbe\xd4\xb0>r?'
p1937
tp1938
Rp1939
aa(lp1940
g28
(g32
S'\x8e\x0ef\xe7\xa2ws?'
p1941
tp1942
Rp1943
aa(lp1944
g28
(g32
S'\x0f8Gt\xe07v?'
p1945
tp1946
Rp1947
aa(lp1948
g28
(g32
S'\xe7%6\xcc|\xef`?'
p1949
tp1950
Rp1951
aa(lp1952
g28
(g32
S'g?\xcaJC\r}?'
p1953
tp1954
Rp1955
aa(lp1956
g28
(g32
S'>\xe8\x1a\x8f\xb9\x0b\\?'
p1957
tp1958
Rp1959
aa(lp1960
g28
(g32
S'\xf8\x9c\x10Qm\x1e\x8a?'
p1961
tp1962
Rp1963
aa(lp1964
g28
(g32
S'\xff\x15f;YL\x84?'
p1965
tp1966
Rp1967
aa(lp1968
g28
(g32
S'\x80h\xf1@2\x91\x83?'
p1969
tp1970
Rp1971
aa(lp1972
g28
(g32
S'\x87Nv\xeb\xe5\x1f~?'
p1973
tp1974
Rp1975
aasg114
(lp1976
(lp1977
g28
(g32
S'\x020\xd3=\x8e\x80\x9d?'
p1978
tp1979
Rp1980
aag1977
a(lp1981
g28
(g32
S'O\x0f\x1e\xe2\xd4\xa4\x91?'
p1982
tp1983
Rp1984
aa(lp1985
g28
(g32
S'\x16\x9c\xebh\xee\x16\x9b?'
p1986
tp1987
Rp1988
aa(lp1989
g28
(g32
S'8\xb3\x88\x83O\xa8\xaa?'
p1990
tp1991
Rp1992
aa(lp1993
g28
(g32
S'\xd3\xfa\xb2(L\xdc\xa0?'
p1994
tp1995
Rp1996
aa(lp1997
g28
(g32
S'\x90\x17\xac\r?\x17\x83?'
p1998
tp1999
Rp2000
aa(lp2001
g28
(g32
S'\xe6w\x83Q\xd5,\xa9?'
p2002
tp2003
Rp2004
aa(lp2005
g28
(g32
S'a\x8f\x97)K\xa1\x91?'
p2006
tp2007
Rp2008
aa(lp2009
g28
(g32
S'\x85\xc2:\xe4A-\x9e?'
p2010
tp2011
Rp2012
aa(lp2013
g28
(g32
S'\xa0#\xe4\xd1\xc5&\x98?'
p2014
tp2015
Rp2016
aa(lp2017
g28
(g32
S'\xbf\xa6~g\xad\x8a\xa2?'
p2018
tp2019
Rp2020
aa(lp2021
g28
(g32
S'\x17\xdd\xcb3\x03\xe4\xb9?'
p2022
tp2023
Rp2024
aa(lp2025
g28
(g32
S'-\xce\xd0\xec\xe2^k?'
p2026
tp2027
Rp2028
aa(lp2029
g28
(g32
S'\x1a\xe1A,7\xab\x95?'
p2030
tp2031
Rp2032
aa(lp2033
g28
(g32
S'\xcd\x8e\x02\xe5\xee\x06\x95?'
p2034
tp2035
Rp2036
aa(lp2037
g28
(g32
S'0\x93\x8a\xca\xc4\xf8\x99?'
p2038
tp2039
Rp2040
aa(lp2041
g28
(g32
S'\xc7\x99\xee\x00\x85\xc7\xa6?'
p2042
tp2043
Rp2044
aa(lp2045
g28
(g32
S'O\xdb\x02\x9e\xceI\xa9?'
p2046
tp2047
Rp2048
aa(lp2049
g28
(g32
S'\xdf\xcdB^\xe5\xf0\x95?'
p2050
tp2051
Rp2052
aa(lp2053
g28
(g32
S'\x8d\xbe\\,\xf4\xf9\xa7?'
p2054
tp2055
Rp2056
aasg196
(lp2057
F16.685850858688354
aF16.685850858688354
aF21.976517915725708
aF16.365211963653564
aF14.071220874786377
aF15.00934886932373
aF22.10042405128479
aF15.124989986419678
aF16.302621126174927
aF14.622758865356445
aF15.398823022842407
aF18.274208068847656
aF19.0728440284729
aF13.580466985702515
aF15.362863779067993
aF16.504265069961548
aF16.861876010894775
aF14.160979986190796
aF17.070067882537842
aF16.45305609703064
aF16.56402897834778
assS'X4'
p2058
(dp2059
g3
(lp2060
(lp2061
I93
aag2061
a(lp2062
I93
aa(lp2063
I92
aa(lp2064
I93
aa(lp2065
I96
aa(lp2066
I93
aa(lp2067
I92
aa(lp2068
I91
aa(lp2069
I94
aa(lp2070
I92
aa(lp2071
I91
aa(lp2072
I91
aa(lp2073
I93
aa(lp2074
I93
aa(lp2075
I91
aa(lp2076
I91
aa(lp2077
I93
aa(lp2078
I94
aa(lp2079
I94
aa(lp2080
I94
aasg25
(lp2081
(lp2082
g28
(g32
S' \xc6<6\xd2rz?'
p2083
tp2084
Rp2085
aag2082
a(lp2086
g28
(g32
S'\xa8`0\xf2\xb1}s?'
p2087
tp2088
Rp2089
aa(lp2090
g28
(g32
S'\xe8\xe3\xecw\xafe\x80?'
p2091
tp2092
Rp2093
aa(lp2094
g28
(g32
S'a\xac\xaf\xe6\x85\x92\x81?'
p2095
tp2096
Rp2097
aa(lp2098
g28
(g32
S'\xdcf\xf4\x7f\xc4\x94\x8b?'
p2099
tp2100
Rp2101
aa(lp2102
g28
(g32
S':\xecb~\x9a\xb9\x8c?'
p2103
tp2104
Rp2105
aa(lp2106
g28
(g32
S'2 \xe6%\x17\xcf\x86?'
p2107
tp2108
Rp2109
aa(lp2110
g28
(g32
S'N\x8d"\xd04\xd9\x98?'
p2111
tp2112
Rp2113
aa(lp2114
g28
(g32
S'\x9at[\xd1\xc0/\x90?'
p2115
tp2116
Rp2117
aa(lp2118
g28
(g32
S'>`\xc4\x12\xfe\xaf\x82?'
p2119
tp2120
Rp2121
aa(lp2122
g28
(g32
S'\x9a\x9c\xd7\xdb\xf4\xb6u?'
p2123
tp2124
Rp2125
aa(lp2126
g28
(g32
S'\x08\x00\xb5\xed\xf0w\x8a?'
p2127
tp2128
Rp2129
aa(lp2130
g28
(g32
S'\xb70\x93\xa0\xaa\xd2\x92?'
p2131
tp2132
Rp2133
aa(lp2134
g28
(g32
S'\x84\x87~Z\x1b\x00\x81?'
p2135
tp2136
Rp2137
aa(lp2138
g28
(g32
S'F\xc0\x0e\x84\x9e\xdc\x8e?'
p2139
tp2140
Rp2141
aa(lp2142
g28
(g32
S'"\x99\x07\x0c\xc5\x8b\x8a?'
p2143
tp2144
Rp2145
aa(lp2146
g28
(g32
S'\x06Y\x94\tx\xe9\x98?'
p2147
tp2148
Rp2149
aa(lp2150
g28
(g32
S'i\x19t\xbc\xcb\xf0\x89?'
p2151
tp2152
Rp2153
aa(lp2154
g28
(g32
S'N\x8d"\xd04\xd9\x98?'
p2155
tp2156
Rp2157
aa(lp2158
g28
(g32
S'4\xa4r\x98h\x14\x91?'
p2159
tp2160
Rp2161
aasg114
(lp2162
(lp2163
g28
(g32
S'\xe4,*<~\x9e\x95?'
p2164
tp2165
Rp2166
aag2163
a(lp2167
g28
(g32
S'\xf1u8`#%\xa5?'
p2168
tp2169
Rp2170
aa(lp2171
g28
(g32
S'0\xc8T\xde*I\xa3?'
p2172
tp2173
Rp2174
aa(lp2175
g28
(g32
S'\xd8f<\x0e\x00\x97\x91?'
p2176
tp2177
Rp2178
aa(lp2179
g28
(g32
S'\xdf&3f\x19\xa3\x94?'
p2180
tp2181
Rp2182
aa(lp2183
g28
(g32
S'\x88\x146>\x86\xa8\x97?'
p2184
tp2185
Rp2186
aa(lp2187
g28
(g32
S'\x95\x1d\x91mP\xb7\x95?'
p2188
tp2189
Rp2190
aa(lp2191
g28
(g32
S'\x00\x00\x00\x00\x00\x00\x00\x00'
p2192
tp2193
Rp2194
aa(lp2195
g28
(g32
S"\xc8\xc0\xc9H'\xa2\xb0?"
p2196
tp2197
Rp2198
aa(lp2199
g28
(g32
S'\xf8k\xcah\xbc\x99\x93?'
p2200
tp2201
Rp2202
aa(lp2203
g28
(g32
S'SC\x13K\x95L\x84?'
p2204
tp2205
Rp2206
aa(lp2207
g28
(g32
S'\x8b.\xc3\xfd\x13:\xae?'
p2208
tp2209
Rp2210
aa(lp2211
g28
(g32
S'\x15\x8d9f\xa4\x13l?'
p2212
tp2213
Rp2214
aa(lp2215
g28
(g32
S'\xfb\x14FT\x11\xe2\x84?'
p2216
tp2217
Rp2218
aa(lp2219
g28
(g32
S'\x8c\xe6\x93\xdc\xe0\x85\xa2?'
p2220
tp2221
Rp2222
aa(lp2223
g28
(g32
S'\x1e\x9b\x93\x1dY\x07\x92?'
p2224
tp2225
Rp2226
aa(lp2227
g28
(g32
S'\x00\x00\x00\x00\x00\x00\x00\x00'
p2228
tp2229
Rp2230
aa(lp2231
g28
(g32
S'`\x11\xb6U\x03\r\x8c?'
p2232
tp2233
Rp2234
aa(lp2235
g28
(g32
S'\x00\x00\x00\x00\x00\x00\x00\x00'
p2236
tp2237
Rp2238
aa(lp2239
g28
(g32
S'\xbaI\x8b*\xae\xfc\x99?'
p2240
tp2241
Rp2242
aasg196
(lp2243
F19.83354091644287
aF19.83354091644287
aF13.968323230743408
aF14.48696780204773
aF13.08013391494751
aF15.01822805404663
aF12.851747989654541
aF13.092445135116577
aF15.14657711982727
aF16.649789094924927
aF16.846135139465332
aF18.729939222335815
aF9.925450801849365
aF11.857900142669678
aF15.154742002487183
aF13.06264591217041
aF16.172964096069336
aF14.466925859451294
aF15.382749080657959
aF13.54137897491455
aF15.744852066040039
assS'X5'
p2244
(dp2245
g3
(lp2246
(lp2247
I91
aag2247
a(lp2248
I92
aa(lp2249
I93
aa(lp2250
I91
aa(lp2251
I92
aa(lp2252
I94
aa(lp2253
I92
aa(lp2254
I93
aa(lp2255
I94
aa(lp2256
I91
aa(lp2257
I91
aa(lp2258
I92
aa(lp2259
I92
aa(lp2260
I92
aa(lp2261
I95
aa(lp2262
I93
aa(lp2263
I92
aa(lp2264
I91
aa(lp2265
I93
aa(lp2266
I92
aasg25
(lp2267
(lp2268
g28
(g32
S'\xa8\x9f\xc11\x92\x7f\x8c?'
p2269
tp2270
Rp2271
aag2268
a(lp2272
g28
(g32
S'\x84\xb0)\xff\xfe$\x8e?'
p2273
tp2274
Rp2275
aa(lp2276
g28
(g32
S'\x0e\xd6\xf6\x90\xfb\xccp?'
p2277
tp2278
Rp2279
aa(lp2280
g28
(g32
S'\x8a"]\xfe\xec:\x8e?'
p2281
tp2282
Rp2283
aa(lp2284
g28
(g32
S'`X&%\x91\xd0\x90?'
p2285
tp2286
Rp2287
aa(lp2288
g28
(g32
S'\x8e\xcc\xae\xd2$\x9a\x8b?'
p2289
tp2290
Rp2291
aa(lp2292
g28
(g32
S'?_\x8c\x10\xf1@\x8a?'
p2293
tp2294
Rp2295
aa(lp2296
g28
(g32
S'\x80\xe0\x13\x97\x97p\x80?'
p2297
tp2298
Rp2299
aa(lp2300
g28
(g32
S'R\x9f(6\x06\x80\x81?'
p2301
tp2302
Rp2303
aa(lp2304
g28
(g32
S'\xd0]e\xe8\xfd\xf8\x94?'
p2305
tp2306
Rp2307
aa(lp2308
g28
(g32
S'C^8\xde\xe7\xb3\x90?'
p2309
tp2310
Rp2311
aa(lp2312
g28
(g32
S'>\x9dJ\x0238\x92?'
p2313
tp2314
Rp2315
aa(lp2316
g28
(g32
S'\x83\x94S-\x99\xd6\x89?'
p2317
tp2318
Rp2319
aa(lp2320
g28
(g32
S'\xd5\xf2\x08TJ\x1b\x8a?'
p2321
tp2322
Rp2323
aa(lp2324
g28
(g32
S'\xde\n$\xdb\xadR\x9a?'
p2325
tp2326
Rp2327
aa(lp2328
g28
(g32
S'\xe0\xd74%\xe6\xe7\x91?'
p2329
tp2330
Rp2331
aa(lp2332
g28
(g32
S'\x8bF\xfa\xc4\x86\x8a\x97?'
p2333
tp2334
Rp2335
aa(lp2336
g28
(g32
S'\xe4\x0b\xb9\xa0jR\x8e?'
p2337
tp2338
Rp2339
aa(lp2340
g28
(g32
S'n\xed\x14PR_\x96?'
p2341
tp2342
Rp2343
aa(lp2344
g28
(g32
S'4\x91\xde\xd7U\xf2\x92?'
p2345
tp2346
Rp2347
aasg114
(lp2348
(lp2349
g28
(g32
S"\xcfpP'\xa4\xac\x94?"
p2350
tp2351
Rp2352
aag2349
a(lp2353
g28
(g32
S'A\xa5\xec\x15\x11\x80\x9e?'
p2354
tp2355
Rp2356
aa(lp2357
g28
(g32
S't\x8fr\xa8^6V?'
p2358
tp2359
Rp2360
aa(lp2361
g28
(g32
S'\xf0\x98\xcft\xa3h\xac?'
p2362
tp2363
Rp2364
aa(lp2365
g28
(g32
S'\x88\x9b;\x13\xab1\xaa?'
p2366
tp2367
Rp2368
aa(lp2369
g28
(g32
S'\x12\x04\xf7J.\xdf\xb1?'
p2370
tp2371
Rp2372
aa(lp2373
g28
(g32
S'\xbb\xf2\xb0\x17\xba#\x88?'
p2374
tp2375
Rp2376
aa(lp2377
g28
(g32
S'\x11\x1f\x82\xe31j\x94?'
p2378
tp2379
Rp2380
aa(lp2381
g28
(g32
S'\xdb\x11\x0c\xb9\xf6\x83\x87?'
p2382
tp2383
Rp2384
aa(lp2385
g28
(g32
S'5\x93\x930\x97b\xb6?'
p2386
tp2387
Rp2388
aa(lp2389
g28
(g32
S'\x87SB\xb3Ci\x82?'
p2390
tp2391
Rp2392
aa(lp2393
g28
(g32
S'\xff0\x8f\x17\x08\xef\x8b?'
p2394
tp2395
Rp2396
aa(lp2397
g28
(g32
S'\xfb\xe2\xd2L\x91|\x9c?'
p2398
tp2399
Rp2400
aa(lp2401
g28
(g32
S'\xdeP\x11z\xfa\t\xaa?'
p2402
tp2403
Rp2404
aa(lp2405
g28
(g32
S'\xa7C\xfd<\x98\xd8\xa2?'
p2406
tp2407
Rp2408
aa(lp2409
g28
(g32
S'\xf2\xc0mHN}\xa7?'
p2410
tp2411
Rp2412
aa(lp2413
g28
(g32
S'\xb9\x00N\x02P~\xa2?'
p2414
tp2415
Rp2416
aa(lp2417
g28
(g32
S'Z\xd0\x04u\x03\xb7\xa2?'
p2418
tp2419
Rp2420
aa(lp2421
g28
(g32
S'b\xc4,\x96O\xb7\xa7?'
p2422
tp2423
Rp2424
aa(lp2425
g28
(g32
S'\xda\x0b*\xc4\xdb\x07\xa7?'
p2426
tp2427
Rp2428
aasg196
(lp2429
F11.542748928070068
aF11.542748928070068
aF15.564045906066895
aF14.891562938690186
aF15.028382062911987
aF17.406939029693604
aF14.363039016723633
aF15.969358921051025
aF16.84619903564453
aF18.53035020828247
aF13.191533088684082
aF15.011813879013062
aF14.79836392402649
aF14.863869905471802
aF17.198624849319458
aF19.265538930892944
aF16.16842007637024
aF14.613662004470825
aF14.947890043258667
aF17.790845155715942
aF14.662897109985352
ass.