(dp0
S'P2'
p1
(dp2
S'evals'
p3
(lp4
(lp5
I52
aag5
a(lp6
I51
aa(lp7
I55
aa(lp8
I54
aa(lp9
I51
aa(lp10
I52
aa(lp11
I51
aa(lp12
I53
aa(lp13
I51
aa(lp14
I51
aa(lp15
I51
aa(lp16
I52
aa(lp17
I52
aa(lp18
I52
aa(lp19
I51
aa(lp20
I51
aa(lp21
I52
aa(lp22
I51
aa(lp23
I52
aa(lp24
I53
aasS'igd'
p25
(lp26
(lp27
cnumpy.core.multiarray
scalar
p28
(cnumpy
dtype
p29
(S'f8'
p30
I0
I1
tp31
Rp32
(I3
S'<'
p33
NNNI-1
I-1
I0
tp34
bS'@\x12y\x1a\x13\xaa\xc3?'
p35
tp36
Rp37
aag27
a(lp38
g28
(g32
S'\xee\xca\xe1F\xa9N\xd4?'
p39
tp40
Rp41
aa(lp42
g28
(g32
S'\xc2\xc7\xab\xa6\xfd\xbd\xa8?'
p43
tp44
Rp45
aa(lp46
g28
(g32
S'2cYa\x95~\xcf?'
p47
tp48
Rp49
aa(lp50
g28
(g32
S"pS\xa8'\xb2\xbe\xd1?"
p51
tp52
Rp53
aa(lp54
g28
(g32
S'\rH\x8d\xfe\xa4x\xd2?'
p55
tp56
Rp57
aa(lp58
g28
(g32
S'Vv;N\xf4_\xb0?'
p59
tp60
Rp61
aa(lp62
g28
(g32
S'ts\n\xdcr\x9f\xd3?'
p63
tp64
Rp65
aa(lp66
g28
(g32
S'\x15\x88\xaes\x7f\xf3\xcb?'
p67
tp68
Rp69
aa(lp70
g28
(g32
S'\xa82sb\x05\xf0\xd0?'
p71
tp72
Rp73
aa(lp74
g28
(g32
S'\xe5\xf4`6\xc2\xca\xd3?'
p75
tp76
Rp77
aa(lp78
g28
(g32
S'\xa3nK\xc9\xcbE\xd0?'
p79
tp80
Rp81
aa(lp82
g28
(g32
S"pS\xa8'\xb2\xbe\xd1?"
p83
tp84
Rp85
aa(lp86
g28
(g32
S'\x1a\xbao<4\x1d\xc8?'
p87
tp88
Rp89
aa(lp90
g28
(g32
S'\xc6P"\x01\xda\x08\xd3?'
p91
tp92
Rp93
aa(lp94
g28
(g32
S'\x8e.E\x15\\(\xd0?'
p95
tp96
Rp97
aa(lp98
g28
(g32
S'\xe9\xd01\x8d:r\xd0?'
p99
tp100
Rp101
aa(lp102
g28
(g32
S'\xf6WG\xd1\xca\xf9\x9e?'
p103
tp104
Rp105
aa(lp106
g28
(g32
S'+\x9cP\x17\xb8A\xd0?'
p107
tp108
Rp109
aa(lp110
g28
(g32
S'\xc5\xb4\x04\x9e\x85\xe4\xa9?'
p111
tp112
Rp113
aasS'gen_dist'
p114
(lp115
(lp116
g28
(g32
S'E\xac\x90\xa5\xe9\xf7\xca?'
p117
tp118
Rp119
aag116
a(lp120
g28
(g32
S']Y\xb1Q;y\xcd?'
p121
tp122
Rp123
aa(lp124
g28
(g32
S'm\xd2\xd1L\xd4\xa1\xc6?'
p125
tp126
Rp127
aa(lp128
g28
(g32
S'E\xd0\x9cc7Z\xc2?'
p129
tp130
Rp131
aa(lp132
g28
(g32
S'W\x0b=\xa2r\x07\xb9?'
p133
tp134
Rp135
aa(lp136
g28
(g32
S'\xb0\xadrY$K\xc6?'
p137
tp138
Rp139
aa(lp140
g28
(g32
S'\xe2\xe5%8c\xb3\xb1?'
p141
tp142
Rp143
aa(lp144
g28
(g32
S'yU\xde9\x90\xfe\xc2?'
p145
tp146
Rp147
aa(lp148
g28
(g32
S'L{]\xc6\xbbA\xb6?'
p149
tp150
Rp151
aa(lp152
g28
(g32
S'\xa09Fx(H\xa2?'
p153
tp154
Rp155
aa(lp156
g28
(g32
S'\xc8\x94\xf0\xfe\xea\n\xc3?'
p157
tp158
Rp159
aa(lp160
g28
(g32
S'\x02,; \xe7\x8b\xc1?'
p161
tp162
Rp163
aa(lp164
g28
(g32
S'F\xbe\x03\x92\xca\x97\xc1?'
p165
tp166
Rp167
aa(lp168
g28
(g32
S'];id\xa4w\xc7?'
p169
tp170
Rp171
aa(lp172
g28
(g32
S'\x804:\x91\xa4\x94\xc0?'
p173
tp174
Rp175
aa(lp176
g28
(g32
S'\x8d-4\xd2\xd4N\xa5?'
p177
tp178
Rp179
aa(lp180
g28
(g32
S'wU\x1b3\x9d\x13\xce?'
p181
tp182
Rp183
aa(lp184
g28
(g32
S'\xc2\x81`\x93\xb5\xd8\xbb?'
p185
tp186
Rp187
aa(lp188
g28
(g32
S'\xfb\xb3Q\x9e\x90\x9b\xbe?'
p189
tp190
Rp191
aa(lp192
g28
(g32
S'\n\xda\x84\x1ent\xbf?'
p193
tp194
Rp195
aasS'time'
p196
(lp197
F10.284540176391602
aF10.284540176391602
aF11.572597026824951
aF12.557400941848755
aF8.8798189163208
aF12.600956916809082
aF12.887185096740723
aF10.64962911605835
aF13.543186902999878
aF15.062280893325806
aF11.282264947891235
aF10.150112867355347
aF9.202386856079102
aF12.050305843353271
aF12.830633878707886
aF10.85864782333374
aF11.680223941802979
aF11.47208285331726
aF9.830887079238892
aF10.19648003578186
aF11.468523025512695
assS'P3'
p198
(dp199
g3
(lp200
(lp201
I52
aag201
a(lp202
I51
aa(lp203
I54
aa(lp204
I51
aa(lp205
I52
aa(lp206
I51
aa(lp207
I54
aa(lp208
I52
aa(lp209
I51
aa(lp210
I51
aa(lp211
I55
aa(lp212
I52
aa(lp213
I51
aa(lp214
I51
aa(lp215
I52
aa(lp216
I52
aa(lp217
I51
aa(lp218
I51
aa(lp219
I52
aa(lp220
I52
aasg25
(lp221
(lp222
g28
(g32
S'M\xba\x8a\x87j\x91\xa0?'
p223
tp224
Rp225
aag222
a(lp226
g28
(g32
S'/J\xbe\xe5b$\x9d?'
p227
tp228
Rp229
aa(lp230
g28
(g32
S'\x97\xde,,\xd7O\xa8?'
p231
tp232
Rp233
aa(lp234
g28
(g32
S"\xac'\xfb\xfc\xe5\x11\xaf?"
p235
tp236
Rp237
aa(lp238
g28
(g32
S'\x1d\xc8\xee\xcb\x92[\xbb?'
p239
tp240
Rp241
aa(lp242
g28
(g32
S'\xa0U\xd0e\x1c\xd4\xa9?'
p243
tp244
Rp245
aa(lp246
g28
(g32
S'\xc1\xfc5\xb7\xa5\x84\xa1?'
p247
tp248
Rp249
aa(lp250
g28
(g32
S'\xc9\x07\xea\xfb\x1a\xa3\xa3?'
p251
tp252
Rp253
aa(lp254
g28
(g32
S'\x93\x8f\x7fJ\xd83\xa5?'
p255
tp256
Rp257
aa(lp258
g28
(g32
S'\xe6\xadY.l\x82\xb5?'
p259
tp260
Rp261
aa(lp262
g28
(g32
S'\x89\x05\xe7z\xb6\xac\xab?'
p263
tp264
Rp265
aa(lp266
g28
(g32
S'\x91\xe8\x179\xc5G\xb0?'
p267
tp268
Rp269
aa(lp270
g28
(g32
S'A\x81\n\x96\x06^\xad?'
p271
tp272
Rp273
aa(lp274
g28
(g32
S'\xc5 \xfb\xf7\xfb\xd0\xa3?'
p275
tp276
Rp277
aa(lp278
g28
(g32
S'\xc2\xc2\nTD\xef\xa3?'
p279
tp280
Rp281
aa(lp282
g28
(g32
S'\x17\r\x08aD\xa0\xa9?'
p283
tp284
Rp285
aa(lp286
g28
(g32
S'\xc9H\xda\xbdb\xf1\xaf?'
p287
tp288
Rp289
aa(lp290
g28
(g32
S'}5|\x1f\xec\x18\xbb?'
p291
tp292
Rp293
aa(lp294
g28
(g32
S'I\xf9R\xd1$\xf5\xad?'
p295
tp296
Rp297
aa(lp298
g28
(g32
S'4\xc3\x1f\xce\x941\xa1?'
p299
tp300
Rp301
aasg114
(lp302
(lp303
g28
(g32
S'qNE\xc6\xf5\xfd\x98?'
p304
tp305
Rp306
aag303
a(lp307
g28
(g32
S'@q\x87\xf7\tv\x95?'
p308
tp309
Rp310
aa(lp311
g28
(g32
S'\xe3\x82\x19\xff,\x9d\x8c?'
p312
tp313
Rp314
aa(lp315
g28
(g32
S'\x13\xe2\x87\x0fZ\xbf\x98?'
p316
tp317
Rp318
aa(lp319
g28
(g32
S'\xc8\xaew\xb3\xa1\xc3w?'
p320
tp321
Rp322
aa(lp323
g28
(g32
S'\x18\xf5&k\x89\x8e\x90?'
p324
tp325
Rp326
aa(lp327
g28
(g32
S'\xed)\xb2\x0f>\t\xb1?'
p328
tp329
Rp330
aa(lp331
g28
(g32
S'\t\xe5/\x8d\r\xbf\x9a?'
p332
tp333
Rp334
aa(lp335
g28
(g32
S'\x91/@\x16\x9a\xd4\xa6?'
p336
tp337
Rp338
aa(lp339
g28
(g32
S'\x85\xf8\x98;\x08\x14}?'
p340
tp341
Rp342
aa(lp343
g28
(g32
S'e\xbd\xc8\x89\xa7*\x92?'
p344
tp345
Rp346
aa(lp347
g28
(g32
S'O\x90\xd0\xf9dl\x9e?'
p348
tp349
Rp350
aa(lp351
g28
(g32
S'\xcd\xd3\x9f=\xc6\xe1\xa5?'
p352
tp353
Rp354
aa(lp355
g28
(g32
S'\xbf\x18\xf0\xc7:\xf0\x9c?'
p356
tp357
Rp358
aa(lp359
g28
(g32
S'4\x1d\x1bY\xe5g\xad?'
p360
tp361
Rp362
aa(lp363
g28
(g32
S'n\xe8q\xdb\xa3\xb9\x95?'
p364
tp365
Rp366
aa(lp367
g28
(g32
S'\x84\xc6&9\x03\x0f\x97?'
p368
tp369
Rp370
aa(lp371
g28
(g32
S";\xd6\x0b\x15X'h?"
p372
tp373
Rp374
aa(lp375
g28
(g32
S'\x10\xae|\xb5s\x03\xa3?'
p376
tp377
Rp378
aa(lp379
g28
(g32
S'@t\xe0\xd8E\xd0\xa2?'
p380
tp381
Rp382
aasg196
(lp383
F12.530431985855103
aF12.530431985855103
aF11.714327096939087
aF12.445651054382324
aF16.249783039093018
aF15.911314964294434
aF14.252408027648926
aF13.431936025619507
aF12.552545070648193
aF12.33101511001587
aF14.669373035430908
aF13.006537914276123
aF12.444479942321777
aF14.059930086135864
aF15.296080112457275
aF10.821370124816895
aF13.491555213928223
aF13.320405960083008
aF16.097342014312744
aF13.588165044784546
aF13.189775943756104
assS'P1'
p384
(dp385
g3
(lp386
(lp387
I51
aag387
a(lp388
I51
aa(lp389
I51
aa(lp390
I51
aa(lp391
I52
aa(lp392
I52
aa(lp393
I51
aa(lp394
I52
aa(lp395
I52
aa(lp396
I51
aa(lp397
I53
aa(lp398
I51
aa(lp399
I51
aa(lp400
I52
aa(lp401
I51
aa(lp402
I54
aa(lp403
I52
aa(lp404
I54
aa(lp405
I52
aa(lp406
I51
aasg25
(lp407
(lp408
g28
(g32
S'%\x97Bo\xf6\xd3\xa8?'
p409
tp410
Rp411
aag408
a(lp412
g28
(g32
S'\xb0\xd0\xa5\xf3"\xaf\x8d?'
p413
tp414
Rp415
aa(lp416
g28
(g32
S'\x12pk\x1a\xb6E\xae?'
p417
tp418
Rp419
aa(lp420
g28
(g32
S'L\xc3\xc05g\xdc\xa6?'
p421
tp422
Rp423
aa(lp424
g28
(g32
S'\xd5M27J6\xa1?'
p425
tp426
Rp427
aa(lp428
g28
(g32
S'-p\x91Jw\xcc\x97?'
p429
tp430
Rp431
aa(lp432
g28
(g32
S'-zo;:\xa4\x8b?'
p433
tp434
Rp435
aa(lp436
g28
(g32
S'\xda\x05\xca\xb8\xfaw\xa1?'
p437
tp438
Rp439
aa(lp440
g28
(g32
S'\x9e\xac\x1dW)@\x93?'
p441
tp442
Rp443
aa(lp444
g28
(g32
S'<e$oM\x93\xa8?'
p445
tp446
Rp447
aa(lp448
g28
(g32
S'\x1e\xdd\xfc\xd9 \xdd\xb1?'
p449
tp450
Rp451
aa(lp452
g28
(g32
S'\x0b\xe4/i\x96\xeb\xc3?'
p453
tp454
Rp455
aa(lp456
g28
(g32
S')C\x05\xe8=\xb3\xbd?'
p457
tp458
Rp459
aa(lp460
g28
(g32
S'\xe0\xbc\xc4B<*\xc3?'
p461
tp462
Rp463
aa(lp464
g28
(g32
S'\xfaQ(\n\xeb\xbe\xaa?'
p465
tp466
Rp467
aa(lp468
g28
(g32
S'iG/\xb6\x9a\xcb\xa8?'
p469
tp470
Rp471
aa(lp472
g28
(g32
S'F(\x0f\x9a\xc8\x14\x9c?'
p473
tp474
Rp475
aa(lp476
g28
(g32
S'\xf0\xfe\x7f\tO\x7f\x8f?'
p477
tp478
Rp479
aa(lp480
g28
(g32
S'w\t8\x82\xda`\xa2?'
p481
tp482
Rp483
aa(lp484
g28
(g32
S'\xdc1\x8d0\xf5\x8d\xa2?'
p485
tp486
Rp487
aasg114
(lp488
(lp489
g28
(g32
S'\xa6\xf5Ic \x06U?'
p490
tp491
Rp492
aag489
a(lp493
g28
(g32
S'tB\xed\x86\xd9Tb?'
p494
tp495
Rp496
aa(lp497
g28
(g32
S'\x8e\xeb\x0b\xb1\xc0\xa8s?'
p498
tp499
Rp500
aa(lp501
g28
(g32
S'>\x15C\x97\xec\x95T?'
p502
tp503
Rp504
aa(lp505
g28
(g32
S'\x02\xd03@y\x0f\x83?'
p506
tp507
Rp508
aa(lp509
g28
(g32
S'\x9a\x1d7<F\x81\x92?'
p510
tp511
Rp512
aa(lp513
g28
(g32
S'\x93\x94\x9d\xeb\xefo\x82?'
p514
tp515
Rp516
aa(lp517
g28
(g32
S'p\x91\x19\x19Y\x80\xa6?'
p518
tp519
Rp520
aa(lp521
g28
(g32
S'5y\xba^\xd8\x16\x8d?'
p522
tp523
Rp524
aa(lp525
g28
(g32
S'\x9c\xe1\xe1\x0c\x110\x97?'
p526
tp527
Rp528
aa(lp529
g28
(g32
S'Q\x91*\x89\xe7\xf5\xfa>'
p530
tp531
Rp532
aa(lp533
g28
(g32
S'\xa6\xf5Ic \x06e?'
p534
tp535
Rp536
aa(lp537
g28
(g32
S'f\xc0f_)\xd2\x85?'
p538
tp539
Rp540
aa(lp541
g28
(g32
S'Q\x91*\x89\xe7\xf5\xfa>'
p542
tp543
Rp544
aa(lp545
g28
(g32
S'\xeb\x86\xf3\xa2\xc4\x815?'
p546
tp547
Rp548
aa(lp549
g28
(g32
S'\xe1`\x1c\x06E\xf9\xf1>'
p550
tp551
Rp552
aa(lp553
g28
(g32
S'I\xfe\xe5\x88\xe8\xc4w?'
p554
tp555
Rp556
aa(lp557
g28
(g32
S'\xbb\xe8H\\\xd4P\x89?'
p558
tp559
Rp560
aa(lp561
g28
(g32
S'\xa00\x97\x9e\xc4\x82\xa0?'
p562
tp563
Rp564
aa(lp565
g28
(g32
S'I\xd3r\xbb\x90\x8f\xa0?'
p566
tp567
Rp568
aasg196
(lp569
F9.52719497680664
aF9.52719497680664
aF11.482978105545044
aF9.315500974655151
aF10.606173992156982
aF9.89769697189331
aF10.52013897895813
aF12.864132165908813
aF12.523360967636108
aF10.22550892829895
aF11.084516048431396
aF10.703992128372192
aF11.477566957473755
aF12.098556995391846
aF9.972065925598145
aF11.38476300239563
aF10.112452983856201
aF11.13553500175476
aF12.488851070404053
aF11.634623050689697
aF11.266402959823608
assS'P4'
p570
(dp571
g3
(lp572
(lp573
I52
aag573
a(lp574
I51
aa(lp575
I51
aa(lp576
I51
aa(lp577
I51
aa(lp578
I51
aa(lp579
I54
aa(lp580
I51
aa(lp581
I51
aa(lp582
I52
aa(lp583
I51
aa(lp584
I51
aa(lp585
I51
aa(lp586
I52
aa(lp587
I51
aa(lp588
I52
aa(lp589
I53
aa(lp590
I52
aa(lp591
I51
aa(lp592
I53
aasg25
(lp593
(lp594
g28
(g32
S'\x9d\xcdpT\xb8\xb5\xe9?'
p595
tp596
Rp597
aag594
a(lp598
g28
(g32
S"\xf2\xcf\xb3\x98\x89'\xe9?"
p599
tp600
Rp601
aa(lp602
g28
(g32
S'\x1aO\xc1[\xeb\xb4\xe8?'
p603
tp604
Rp605
aa(lp606
g28
(g32
S'~>\xa5br\x8d\xe6?'
p607
tp608
Rp609
aa(lp610
g28
(g32
S'k\xf7R\x19\x92\x9f\xe9?'
p611
tp612
Rp613
aa(lp614
g28
(g32
S'O\x90N\xa9h\x07\xe9?'
p615
tp616
Rp617
aa(lp618
g28
(g32
S'&\x06\xc9U\xe3\x14\xe9?'
p619
tp620
Rp621
aa(lp622
g28
(g32
S'\xaf`oI\x8e\x0b\xe9?'
p623
tp624
Rp625
aa(lp626
g28
(g32
S'\x05/n\xdc\x84\xb5\xe6?'
p627
tp628
Rp629
aa(lp630
g28
(g32
S'a_r5\xe6\x15\xe9?'
p631
tp632
Rp633
aa(lp634
g28
(g32
S'\xca\xfe\x1f\xdf\xf6\x9b\xe7?'
p635
tp636
Rp637
aa(lp638
g28
(g32
S'\x99M\x1c\x15o)\xe9?'
p639
tp640
Rp641
aa(lp642
g28
(g32
S'\xcb\xc8|\x80v_\xe3?'
p643
tp644
Rp645
aa(lp646
g28
(g32
S'&\xeb\xbb\x1ft\xb9\xe6?'
p647
tp648
Rp649
aa(lp650
g28
(g32
S'\xba\xf1[\x8c\x07\x99\xe6?'
p651
tp652
Rp653
aa(lp654
g28
(g32
S'\xa5\xd6\x1b\x85\x998\xe9?'
p655
tp656
Rp657
aa(lp658
g28
(g32
S'B\xe5\xf9\xcd/\xa8\xe8?'
p659
tp660
Rp661
aa(lp662
g28
(g32
S'\xbe\xc2<\x82\x87X\xe8?'
p663
tp664
Rp665
aa(lp666
g28
(g32
S'\x9a\xaa\x8eKU\xd5\xe7?'
p667
tp668
Rp669
aa(lp670
g28
(g32
S'J\x9f\xca\xda)\t\xe9?'
p671
tp672
Rp673
aasg114
(lp674
(lp675
g28
(g32
S'\x82\xbb\xea\xf2\x1f\xb5\xd0?'
p676
tp677
Rp678
aag675
a(lp679
g28
(g32
S'\x0e\xfe\x91\xdeB\xef\xc4?'
p680
tp681
Rp682
aa(lp683
g28
(g32
S'\x13\x0c\x96c\xb0\xf9\x9b?'
p684
tp685
Rp686
aa(lp687
g28
(g32
S'#I%\x17N%\x9d?'
p688
tp689
Rp690
aa(lp691
g28
(g32
S'\xeaF-f\x95\x1fp?'
p692
tp693
Rp694
aa(lp695
g28
(g32
S't.b\xbf\x84\x83\xb7?'
p696
tp697
Rp698
aa(lp699
g28
(g32
S'\x0f\xffh\xc0\xfb\xee\x90?'
p700
tp701
Rp702
aa(lp703
g28
(g32
S'\xee|\xbdm\xc3\xbc\x87?'
p704
tp705
Rp706
aa(lp707
g28
(g32
S'\x14\x9bR\xc1\xda1\xc5?'
p708
tp709
Rp710
aa(lp711
g28
(g32
S'\x8f\xd1\x84v\x18\xe8\xca?'
p712
tp713
Rp714
aa(lp715
g28
(g32
S',|\xd7\xb4}\n\xbd?'
p716
tp717
Rp718
aa(lp719
g28
(g32
S'\x16\x1f\x8e\x97\x81=\x88?'
p720
tp721
Rp722
aa(lp723
g28
(g32
S'\x95\x80\x8bD\xc9\xf0\xc6?'
p724
tp725
Rp726
aa(lp727
g28
(g32
S'\xe8v\x83\x9c\x89S\x9d?'
p728
tp729
Rp730
aa(lp731
g28
(g32
S'\x03\x03pX\xf7\xce\xa7?'
p732
tp733
Rp734
aa(lp735
g28
(g32
S'E\xad\xe1\xca\x12\x16\xa3?'
p736
tp737
Rp738
aa(lp739
g28
(g32
S']E\x98\xf95\xde\xc9?'
p740
tp741
Rp742
aa(lp743
g28
(g32
S'\x83\xd1\xa0\x1e\xa7\xa3\xc4?'
p744
tp745
Rp746
aa(lp747
g28
(g32
S'b<\xddT\xefJ\xc1?'
p748
tp749
Rp750
aa(lp751
g28
(g32
S'\x9egc\xcas@\xbe?'
p752
tp753
Rp754
aasg196
(lp755
F11.255459785461426
aF11.255459785461426
aF11.706413984298706
aF11.678473949432373
aF11.583154916763306
aF15.579253196716309
aF13.082587003707886
aF14.058995962142944
aF12.130446195602417
aF12.068114995956421
aF9.928366899490356
aF10.72834587097168
aF10.820074081420898
aF12.9794340133667
aF14.592407941818237
aF12.578960180282593
aF11.538953065872192
aF11.213949203491211
aF10.693578004837036
aF11.959980964660645
aF11.304075002670288
assS'M4'
p756
(dp757
g3
(lp758
(lp759
I51
aag759
a(lp760
I54
aa(lp761
I53
aa(lp762
I51
aa(lp763
I53
aa(lp764
I54
aa(lp765
I53
aa(lp766
I52
aa(lp767
I53
aa(lp768
I54
aa(lp769
I51
aa(lp770
I51
aa(lp771
I53
aa(lp772
I54
aa(lp773
I53
aa(lp774
I53
aa(lp775
I51
aa(lp776
I54
aa(lp777
I53
aa(lp778
I53
aasg25
(lp779
(lp780
g28
(g32
S'\x06\x80\x9d\x1a\xd5g\x91?'
p781
tp782
Rp783
aag780
a(lp784
g28
(g32
S'_\xc5\xd7\xdb`X\x98?'
p785
tp786
Rp787
aa(lp788
g28
(g32
S'\x93\xe7\x08\x81\xe2\xc6\x91?'
p789
tp790
Rp791
aa(lp792
g28
(g32
S'%@\xec5\xcas\x8a?'
p793
tp794
Rp795
aa(lp796
g28
(g32
S'\xc6\x99\xd9\xca\x04\xcc\x94?'
p797
tp798
Rp799
aa(lp800
g28
(g32
S'J\xa6\xddt\x199\x91?'
p801
tp802
Rp803
aa(lp804
g28
(g32
S'\xdfIf\x1d\xa4\x0c\x92?'
p805
tp806
Rp807
aa(lp808
g28
(g32
S'\xdbv\xcd@\x9a\x90\x8f?'
p809
tp810
Rp811
aa(lp812
g28
(g32
S'\xb3\xc4\xd6\x06v\x93\x97?'
p813
tp814
Rp815
aa(lp816
g28
(g32
S'OM\x90\x92\x9c\x06\x95?'
p817
tp818
Rp819
aa(lp820
g28
(g32
S'$g\xf2o0\x1f\x90?'
p821
tp822
Rp823
aa(lp824
g28
(g32
S'6:\nOi\x11\x8f?'
p825
tp826
Rp827
aa(lp828
g28
(g32
S'\xda.y\xd9\x8dq\x90?'
p829
tp830
Rp831
aa(lp832
g28
(g32
S'\xeb\xa7M6\xf6\xdb\xa2?'
p833
tp834
Rp835
aa(lp836
g28
(g32
S'\xe3L"\xbd(\x06\x95?'
p837
tp838
Rp839
aa(lp840
g28
(g32
S'\xb6\x03D\xf6y\x19\x8a?'
p841
tp842
Rp843
aa(lp844
g28
(g32
S'\xed\xf1y\x93\xea\xbd\x8a?'
p845
tp846
Rp847
aa(lp848
g28
(g32
S'\xbe\xdc\x9b"U\xc2\x91?'
p849
tp850
Rp851
aa(lp852
g28
(g32
S'f$w\xd0w`\x93?'
p853
tp854
Rp855
aa(lp856
g28
(g32
S'\xb17ou\xb2\xa9\x8f?'
p857
tp858
Rp859
aasg114
(lp860
(lp861
g28
(g32
S'\xa5K\x87\x14\x80\x87r?'
p862
tp863
Rp864
aag861
a(lp865
g28
(g32
S'9\xebji?\x1ft?'
p866
tp867
Rp868
aa(lp869
g28
(g32
S'\x8d\xaaK\xce\x92\x18v?'
p870
tp871
Rp872
aa(lp873
g28
(g32
S'\xc2\x88\xb4\xe4\xaa\x94{?'
p874
tp875
Rp876
aa(lp877
g28
(g32
S'\x8d\x9d\x90 \xd1\xefh?'
p878
tp879
Rp880
aa(lp881
g28
(g32
S'\x01F6L"Ct?'
p882
tp883
Rp884
aa(lp885
g28
(g32
S'\xc3\x9c\xab\xe17\nt?'
p886
tp887
Rp888
aa(lp889
g28
(g32
S'\x14\xce\xb6\x1b\xb8Pu?'
p890
tp891
Rp892
aa(lp893
g28
(g32
S'K\x8e\xd5\x12\xbd<r?'
p894
tp895
Rp896
aa(lp897
g28
(g32
S'\x85k\xef\x13\xfc\x98\x7f?'
p898
tp899
Rp900
aa(lp901
g28
(g32
S'\x96\xca\x82\xb6\xab\xc7w?'
p902
tp903
Rp904
aa(lp905
g28
(g32
S'\t\x02\x9e\xaf\xc0~v?'
p906
tp907
Rp908
aa(lp909
g28
(g32
S'\x0e\xd0\xc0 \x8dsz?'
p910
tp911
Rp912
aa(lp913
g28
(g32
S'\xdb\r\xe2j\x823p?'
p914
tp915
Rp916
aa(lp917
g28
(g32
S'\xe2\x14E\xe1\x0c\x0bu?'
p918
tp919
Rp920
aa(lp921
g28
(g32
S'\x0e\x0e[\x05q\xabl?'
p922
tp923
Rp924
aa(lp925
g28
(g32
S'\x94\xcd\x97\xaa\xcb$v?'
p926
tp927
Rp928
aa(lp929
g28
(g32
S'\xcbf\x14\xeb[\x07{?'
p930
tp931
Rp932
aa(lp933
g28
(g32
S's\xe2\x02\x97m>u?'
p934
tp935
Rp936
aa(lp937
g28
(g32
S'\xbdK\xa1Z\xc63o?'
p938
tp939
Rp940
aasg196
(lp941
F25.331589937210083
aF25.331589937210083
aF24.10496687889099
aF20.61441707611084
aF22.156364917755127
aF20.780636072158813
aF22.70992112159729
aF20.397740125656128
aF25.23837900161743
aF21.3906569480896
aF22.60376501083374
aF22.413800954818726
aF25.07864499092102
aF20.447038888931274
aF23.36851406097412
aF29.04989504814148
aF23.057837963104248
aF24.31059503555298
aF21.10890007019043
aF22.01807188987732
aF21.458452939987183
assS'M1'
p942
(dp943
g3
(lp944
(lp945
I51
aag945
a(lp946
I51
aa(lp947
I51
aa(lp948
I51
aa(lp949
I51
aa(lp950
I53
aa(lp951
I52
aa(lp952
I52
aa(lp953
I54
aa(lp954
I52
aa(lp955
I52
aa(lp956
I51
aa(lp957
I54
aa(lp958
I52
aa(lp959
I51
aa(lp960
I53
aa(lp961
I53
aa(lp962
I52
aa(lp963
I51
aa(lp964
I52
aasg25
(lp965
(lp966
g28
(g32
S'`\xb3\xe3\x83\xe9\xfe\xa4?'
p967
tp968
Rp969
aag966
a(lp970
g28
(g32
S'\x01\xe9\xad_\x86\xfd\x93?'
p971
tp972
Rp973
aa(lp974
g28
(g32
S'sk\xd7E\x83X\x96?'
p975
tp976
Rp977
aa(lp978
g28
(g32
S']f.\xc0\xf3\xe5\x91?'
p979
tp980
Rp981
aa(lp982
g28
(g32
S'%\x97\x8a\xf3\xc5m\x98?'
p983
tp984
Rp985
aa(lp986
g28
(g32
S'\x12\xb4\xf0&\xdd,\x8c?'
p987
tp988
Rp989
aa(lp990
g28
(g32
S'\x05\x80\xfe\xe1\r!\x9a?'
p991
tp992
Rp993
aa(lp994
g28
(g32
S'\xa0\xd8:\x18-\xe6\x99?'
p995
tp996
Rp997
aa(lp998
g28
(g32
S'8\x9bs\xcf\x81\xa9\x99?'
p999
tp1000
Rp1001
aa(lp1002
g28
(g32
S'>|\xdf\x02O\x07\x99?'
p1003
tp1004
Rp1005
aa(lp1006
g28
(g32
S'J\xf2\x9dyT\xa3\x91?'
p1007
tp1008
Rp1009
aa(lp1010
g28
(g32
S'\xc7*\xe0Bj\x0e\xa3?'
p1011
tp1012
Rp1013
aa(lp1014
g28
(g32
S'\xe9\xc6\xc4\x1c\xe8\r\x97?'
p1015
tp1016
Rp1017
aa(lp1018
g28
(g32
S'\x17\x17\x114\x83\x12\x9a?'
p1019
tp1020
Rp1021
aa(lp1022
g28
(g32
S'eX\x81\xabs\xa4\x97?'
p1023
tp1024
Rp1025
aa(lp1026
g28
(g32
S'ri\x84\xbd{\x89\x88?'
p1027
tp1028
Rp1029
aa(lp1030
g28
(g32
S'\xa2\xaa\xb8?X\xf7\xa1?'
p1031
tp1032
Rp1033
aa(lp1034
g28
(g32
S'\x99A9U\xff7\x91?'
p1035
tp1036
Rp1037
aa(lp1038
g28
(g32
S')\xc0\x88\xbd-i\x94?'
p1039
tp1040
Rp1041
aa(lp1042
g28
(g32
S'\xff\x8e\x85\xf8\x01\xc3\x91?'
p1043
tp1044
Rp1045
aasg114
(lp1046
(lp1047
g28
(g32
S'x\xedN;\n\xad\x81?'
p1048
tp1049
Rp1050
aag1047
a(lp1051
g28
(g32
S'\xb5\x1c\xff/\xebf\x83?'
p1052
tp1053
Rp1054
aa(lp1055
g28
(g32
S'\x03H\x1a\xf9<\x14\x81?'
p1056
tp1057
Rp1058
aa(lp1059
g28
(g32
S'\xdaa!pU\x9b\x80?'
p1060
tp1061
Rp1062
aa(lp1063
g28
(g32
S'\x9d\xe4(\xf7 \xa4\x89?'
p1064
tp1065
Rp1066
aa(lp1067
g28
(g32
S'\xcfz\x9f\xb7G\x02}?'
p1068
tp1069
Rp1070
aa(lp1071
g28
(g32
S'[OD\xad\xfa\xc8\x85?'
p1072
tp1073
Rp1074
aa(lp1075
g28
(g32
S'4,d\xae\xf6.\x82?'
p1076
tp1077
Rp1078
aa(lp1079
g28
(g32
S'\x83\xc0\xc0b\x18V~?'
p1080
tp1081
Rp1082
aa(lp1083
g28
(g32
S'x;\xbbh\xc6\xe2\x87?'
p1084
tp1085
Rp1086
aa(lp1087
g28
(g32
S'\xb7\xb8\x0c\x7f\xf9%\x83?'
p1088
tp1089
Rp1090
aa(lp1091
g28
(g32
S'\xf2A\xed\xa1\x86,\x7f?'
p1092
tp1093
Rp1094
aa(lp1095
g28
(g32
S'\xf312\x05\xaa^\x7f?'
p1096
tp1097
Rp1098
aa(lp1099
g28
(g32
S'c\xddT\xd9\xa9j\x8d?'
p1100
tp1101
Rp1102
aa(lp1103
g28
(g32
S'\xd0/\x9a-mB\x82?'
p1104
tp1105
Rp1106
aa(lp1107
g28
(g32
S"R'F)zI{?"
p1108
tp1109
Rp1110
aa(lp1111
g28
(g32
S'NR\xfc%4\x8a\x7f?'
p1112
tp1113
Rp1114
aa(lp1115
g28
(g32
S'\xce\x16^\x8aq\x82\x84?'
p1116
tp1117
Rp1118
aa(lp1119
g28
(g32
S'\x82v\x1e\xa3x\xf0\x80?'
p1120
tp1121
Rp1122
aa(lp1123
g28
(g32
S'\x8c\xfa\xa7\xd7:k\x83?'
p1124
tp1125
Rp1126
aasg196
(lp1127
F26.63428497314453
aF26.63428497314453
aF26.549494981765747
aF22.30085301399231
aF29.915523052215576
aF25.77969002723694
aF25.883512020111084
aF27.925791025161743
aF29.688950061798096
aF26.217896938323975
aF24.067624807357788
aF28.205731868743896
aF26.246371030807495
aF23.44734811782837
aF27.100224018096924
aF25.837491989135742
aF25.2400119304657
aF30.12522792816162
aF27.8088641166687
aF29.29112195968628
aF24.11223602294922
assS'M3'
p1128
(dp1129
g3
(lp1130
(lp1131
I53
aag1131
a(lp1132
I52
aa(lp1133
I53
aa(lp1134
I53
aa(lp1135
I52
aa(lp1136
I51
aa(lp1137
I54
aa(lp1138
I53
aa(lp1139
I54
aa(lp1140
I51
aa(lp1141
I53
aa(lp1142
I53
aa(lp1143
I51
aa(lp1144
I51
aa(lp1145
I52
aa(lp1146
I51
aa(lp1147
I54
aa(lp1148
I51
aa(lp1149
I52
aa(lp1150
I55
aasg25
(lp1151
(lp1152
g28
(g32
S')\x03\xa3\x80d+\x89?'
p1153
tp1154
Rp1155
aag1152
a(lp1156
g28
(g32
S'g\x8d\x037y\xd8\x92?'
p1157
tp1158
Rp1159
aa(lp1160
g28
(g32
S'x\xb6\x01\x99/\xaa\x8e?'
p1161
tp1162
Rp1163
aa(lp1164
g28
(g32
S'\xdbNn\x86\x1e\x15\x98?'
p1165
tp1166
Rp1167
aa(lp1168
g28
(g32
S'f\xf6B\x9b\xa8\x8a\x9b?'
p1169
tp1170
Rp1171
aa(lp1172
g28
(g32
S'\x88Y\xb6\xf6\xc7:\xa7?'
p1173
tp1174
Rp1175
aa(lp1176
g28
(g32
S'\x9c\xb0\xd6\xb1\x03|\x8e?'
p1177
tp1178
Rp1179
aa(lp1180
g28
(g32
S'v\xf4C\x18P\x9d\x8a?'
p1181
tp1182
Rp1183
aa(lp1184
g28
(g32
S'x\xcc*|pa\x89?'
p1185
tp1186
Rp1187
aa(lp1188
g28
(g32
S'-\xcb\x1c\x91\x8f\xa9\x9c?'
p1189
tp1190
Rp1191
aa(lp1192
g28
(g32
S'\x11\xa2\xfd\x9d}a\x7f?'
p1193
tp1194
Rp1195
aa(lp1196
g28
(g32
S'b\xc8\xeaco\x9d\x92?'
p1197
tp1198
Rp1199
aa(lp1200
g28
(g32
S'E\xda\xc3\x7f}\xf0\x8d?'
p1201
tp1202
Rp1203
aa(lp1204
g28
(g32
S'\x82\x88\xa9@\x98\xe4\x93?'
p1205
tp1206
Rp1207
aa(lp1208
g28
(g32
S'to\xd66\x08\x17\x89?'
p1209
tp1210
Rp1211
aa(lp1212
g28
(g32
S'CE\xe8\xb1)\x11\x94?'
p1213
tp1214
Rp1215
aa(lp1216
g28
(g32
S'`\\\xda}*\xed\x95?'
p1217
tp1218
Rp1219
aa(lp1220
g28
(g32
S'"\xfc\xc3\xfd\x18\xce\x96?'
p1221
tp1222
Rp1223
aa(lp1224
g28
(g32
S'\xb0\xf2)Q%\xcd\x8e?'
p1225
tp1226
Rp1227
aa(lp1228
g28
(g32
S'\xbc4\x97\xcb\x81\x8f\x9d?'
p1229
tp1230
Rp1231
aasg114
(lp1232
(lp1233
g28
(g32
S'\x99\xcf\x80\xe1>\x0cz?'
p1234
tp1235
Rp1236
aag1233
a(lp1237
g28
(g32
S'\xfa\x9e\x8d\xab\x96\xbco?'
p1238
tp1239
Rp1240
aa(lp1241
g28
(g32
S'\x8d<t\t!\xd1q?'
p1242
tp1243
Rp1244
aa(lp1245
g28
(g32
S'\xe1\xaa\xab\x99\xeb\xb7m?'
p1246
tp1247
Rp1248
aa(lp1249
g28
(g32
S'\xf5\xa6V\xb8m\x89x?'
p1250
tp1251
Rp1252
aa(lp1253
g28
(g32
S'\xacr\xd8\x14\xc2>s?'
p1254
tp1255
Rp1256
aa(lp1257
g28
(g32
S'Ah\xb2\xec\xcb\x1d{?'
p1258
tp1259
Rp1260
aa(lp1261
g28
(g32
S'\xf1\x01u\x06+\x97s?'
p1262
tp1263
Rp1264
aa(lp1265
g28
(g32
S'\x1aiZ\x89z\x0fn?'
p1266
tp1267
Rp1268
aa(lp1269
g28
(g32
S'i\xe0@Y\xc4!`?'
p1270
tp1271
Rp1272
aa(lp1273
g28
(g32
S'*\x1e4\x18evq?'
p1274
tp1275
Rp1276
aa(lp1277
g28
(g32
S'\xb1\xc4\x8b\x8f>r\x80?'
p1278
tp1279
Rp1280
aa(lp1281
g28
(g32
S'v0M3N\xf2r?'
p1282
tp1283
Rp1284
aa(lp1285
g28
(g32
S'#\x95\r\x8d\xfc\x14\x80?'
p1286
tp1287
Rp1288
aa(lp1289
g28
(g32
S'\xf3\xdd\xe64\xb3cm?'
p1290
tp1291
Rp1292
aa(lp1293
g28
(g32
S'&AJg\x95\x05~?'
p1294
tp1295
Rp1296
aa(lp1297
g28
(g32
S'\x18\x97\xe7\xef\xa1\x94z?'
p1298
tp1299
Rp1300
aa(lp1301
g28
(g32
S'\xb4)\xdcq\x9frw?'
p1302
tp1303
Rp1304
aa(lp1305
g28
(g32
S'\x01\xa2\xe3\xd2|T\x7f?'
p1306
tp1307
Rp1308
aa(lp1309
g28
(g32
S'\xc3\xa3\xed\xe5\xc6\x1eq?'
p1310
tp1311
Rp1312
aasg196
(lp1313
F23.916754961013794
aF23.916754961013794
aF28.727725982666016
aF27.105809926986694
aF26.907207012176514
aF25.095741987228394
aF25.090126037597656
aF27.237572193145752
aF24.416368007659912
aF23.613991022109985
aF24.806141138076782
aF25.57000207901001
aF23.929111003875732
aF25.24783992767334
aF26.019206047058105
aF25.638458967208862
aF24.318114042282104
aF24.808263063430786
aF26.14238405227661
aF26.0796959400177
aF24.530704021453857
assS'M2'
p1314
(dp1315
g3
(lp1316
(lp1317
I53
aag1317
a(lp1318
I53
aa(lp1319
I51
aa(lp1320
I51
aa(lp1321
I52
aa(lp1322
I51
aa(lp1323
I51
aa(lp1324
I53
aa(lp1325
I51
aa(lp1326
I53
aa(lp1327
I52
aa(lp1328
I51
aa(lp1329
I51
aa(lp1330
I53
aa(lp1331
I54
aa(lp1332
I51
aa(lp1333
I52
aa(lp1334
I53
aa(lp1335
I51
aa(lp1336
I55
aasg25
(lp1337
(lp1338
g28
(g32
S'\x98\xe9\xfcK\x16\xc6\x87?'
p1339
tp1340
Rp1341
aag1338
a(lp1342
g28
(g32
S'\xce\xa9`-\xd9\x00\x92?'
p1343
tp1344
Rp1345
aa(lp1346
g28
(g32
S'\x08\xdc\xd8}\x95\x85\x86?'
p1347
tp1348
Rp1349
aa(lp1350
g28
(g32
S'\xbf\xcf\xcb\xa8\x8c6\x93?'
p1351
tp1352
Rp1353
aa(lp1354
g28
(g32
S'\xbc-\x82\xa3i\xa6\x87?'
p1355
tp1356
Rp1357
aa(lp1358
g28
(g32
S':\xa1\xdai\xd4\xf0\x85?'
p1359
tp1360
Rp1361
aa(lp1362
g28
(g32
S'\xe5K\xf9\n\x14\xb1\x82?'
p1363
tp1364
Rp1365
aa(lp1366
g28
(g32
S'\x1d\xd2Jt\x0c\xb8\x8c?'
p1367
tp1368
Rp1369
aa(lp1370
g28
(g32
S'\xc9U\x12\xb6\x9eT\x85?'
p1371
tp1372
Rp1373
aa(lp1374
g28
(g32
S'\x86\xe2\x9d/\x8d\xaa\x8d?'
p1375
tp1376
Rp1377
aa(lp1378
g28
(g32
S'\x9d\xd2;\xd8\xbc\xf3\x8f?'
p1379
tp1380
Rp1381
aa(lp1382
g28
(g32
S'}W\xd6\xb6\xe8\x13\x89?'
p1383
tp1384
Rp1385
aa(lp1386
g28
(g32
S'R\x97Np-\xbb\x85?'
p1387
tp1388
Rp1389
aa(lp1390
g28
(g32
S'\x0f\xc8n\xea*0\x8d?'
p1391
tp1392
Rp1393
aa(lp1394
g28
(g32
S'\x07\xaa\x1f\x80\x8e\xbf\x8e?'
p1395
tp1396
Rp1397
aa(lp1398
g28
(g32
S'\x7f\xb2D\xda\xe4\xd3\x86?'
p1399
tp1400
Rp1401
aa(lp1402
g28
(g32
S'\xd8\x13)\x00\xd1\xef\x8f?'
p1403
tp1404
Rp1405
aa(lp1406
g28
(g32
S'I\x8e]\x08\t\xd2\x87?'
p1407
tp1408
Rp1409
aa(lp1410
g28
(g32
S'e)\xee\xa5\xd6C\x8d?'
p1411
tp1412
Rp1413
aa(lp1414
g28
(g32
S'\xc8]\x0f\xdfF[\x8f?'
p1415
tp1416
Rp1417
aasg114
(lp1418
(lp1419
g28
(g32
S'\xcbY\xd8\xbc#\x95~?'
p1420
tp1421
Rp1422
aag1419
a(lp1423
g28
(g32
S'\x98\xc0\xa8\xfb\x80\x02\x80?'
p1424
tp1425
Rp1426
aa(lp1427
g28
(g32
S'\xb7\x80L\xc1\x0b\x86\x82?'
p1428
tp1429
Rp1430
aa(lp1431
g28
(g32
S'jE?]W\x0f\x82?'
p1432
tp1433
Rp1434
aa(lp1435
g28
(g32
S'$G\x99\x04o\xe1r?'
p1436
tp1437
Rp1438
aa(lp1439
g28
(g32
S'\xf8\x1d\xf0\xe8\xf4Bb?'
p1440
tp1441
Rp1442
aa(lp1443
g28
(g32
S'\xa9\xc9^\xe8\t\xfdq?'
p1444
tp1445
Rp1446
aa(lp1447
g28
(g32
S'\xe5\x0e\xf1N\t\xb9z?'
p1448
tp1449
Rp1450
aa(lp1451
g28
(g32
S'\xc1\x13\xb4\x8e\xbf\x89s?'
p1452
tp1453
Rp1454
aa(lp1455
g28
(g32
S'*\xe3\x10C\xd1\xb4v?'
p1456
tp1457
Rp1458
aa(lp1459
g28
(g32
S'\xbe\x06\xeb\x03\xe3Qu?'
p1460
tp1461
Rp1462
aa(lp1463
g28
(g32
S'\xcb\xe3]\xb7x\xecz?'
p1464
tp1465
Rp1466
aa(lp1467
g28
(g32
S'V\xd9\xb3\xe0{ww?'
p1468
tp1469
Rp1470
aa(lp1471
g28
(g32
S'9m<\xbb\xbe)t?'
p1472
tp1473
Rp1474
aa(lp1475
g28
(g32
S'\xa3\x93\x88\xf1\xa4r{?'
p1476
tp1477
Rp1478
aa(lp1479
g28
(g32
S'+qgw\xb7\xc1\x88?'
p1480
tp1481
Rp1482
aa(lp1483
g28
(g32
S'\x1f\xc2\xd8\xed\x0bFx?'
p1484
tp1485
Rp1486
aa(lp1487
g28
(g32
S'\xe2\xf5\x90\xec\xe9{t?'
p1488
tp1489
Rp1490
aa(lp1491
g28
(g32
S'\x06Y\xc0\x06\xf4)}?'
p1492
tp1493
Rp1494
aa(lp1495
g28
(g32
S'\x00^\xe6\x1e"\xb9r?'
p1496
tp1497
Rp1498
aasg196
(lp1499
F22.48077917098999
aF22.48077917098999
aF24.38735294342041
aF23.267243146896362
aF21.752590894699097
aF19.79876399040222
aF20.23687982559204
aF21.963402032852173
aF21.87336301803589
aF25.322314023971558
aF21.679447889328003
aF21.483407020568848
aF19.726847887039185
aF22.475132942199707
aF21.07246994972229
aF23.276427030563354
aF23.911381006240845
aF21.919415950775146
aF23.85652995109558
aF23.51036310195923
aF19.690996885299683
assS'X2'
p1500
(dp1501
g3
(lp1502
(lp1503
I52
aag1503
a(lp1504
I53
aa(lp1505
I51
aa(lp1506
I52
aa(lp1507
I51
aa(lp1508
I53
aa(lp1509
I51
aa(lp1510
I53
aa(lp1511
I53
aa(lp1512
I52
aa(lp1513
I51
aa(lp1514
I54
aa(lp1515
I53
aa(lp1516
I53
aa(lp1517
I51
aa(lp1518
I53
aa(lp1519
I51
aa(lp1520
I52
aa(lp1521
I52
aa(lp1522
I51
aasg25
(lp1523
(lp1524
g28
(g32
S'\xbc[>\x10\x12[\x90?'
p1525
tp1526
Rp1527
aag1524
a(lp1528
g28
(g32
S'{\xb0MO(\x02\x8e?'
p1529
tp1530
Rp1531
aa(lp1532
g28
(g32
S'f@\xc3\xbf.I|?'
p1533
tp1534
Rp1535
aa(lp1536
g28
(g32
S'\xd2)\xf2~[h\x8d?'
p1537
tp1538
Rp1539
aa(lp1540
g28
(g32
S'H\xbb+\x8b\xdd\xaa\x9d?'
p1541
tp1542
Rp1543
aa(lp1544
g28
(g32
S'\xc6d\x9d\xfa\x08v\xa2?'
p1545
tp1546
Rp1547
aa(lp1548
g28
(g32
S'}\xeb\x81\xe2 {\x92?'
p1549
tp1550
Rp1551
aa(lp1552
g28
(g32
S'.\x95,\x1c\xc5\x90\x90?'
p1553
tp1554
Rp1555
aa(lp1556
g28
(g32
S'\x1d)h\xba\xcc*\x8f?'
p1557
tp1558
Rp1559
aa(lp1560
g28
(g32
S'F\xa8\x1e-\x92X\x84?'
p1561
tp1562
Rp1563
aa(lp1564
g28
(g32
S'\x81\xb2\\9\xbep\x89?'
p1565
tp1566
Rp1567
aa(lp1568
g28
(g32
S',\xa9\xfe\x90\xd1\x17\x94?'
p1569
tp1570
Rp1571
aa(lp1572
g28
(g32
S'\x10#$e\\\x9f\x91?'
p1573
tp1574
Rp1575
aa(lp1576
g28
(g32
S'\x9a\xa4\xab\xbf\x0c\x12\xa2?'
p1577
tp1578
Rp1579
aa(lp1580
g28
(g32
S'c\xf1\xedVD*\x9b?'
p1581
tp1582
Rp1583
aa(lp1584
g28
(g32
S'+\x94\xf0\x15v\x85\x99?'
p1585
tp1586
Rp1587
aa(lp1588
g28
(g32
S'\x91DM}\x95\xe3\x91?'
p1589
tp1590
Rp1591
aa(lp1592
g28
(g32
S'\xc0\xb4\xddi\x0e\x8b\x8e?'
p1593
tp1594
Rp1595
aa(lp1596
g28
(g32
S'r\xe2ij\xfcd\x99?'
p1597
tp1598
Rp1599
aa(lp1600
g28
(g32
S'^\xeeM\xb3\x8b\xa4\x84?'
p1601
tp1602
Rp1603
aasg114
(lp1604
(lp1605
g28
(g32
S'\xa6\xe8d\xe8B\xaf\xb9?'
p1606
tp1607
Rp1608
aag1605
a(lp1609
g28
(g32
S'\x80\xf0#\xe3`\x8c\x9c?'
p1610
tp1611
Rp1612
aa(lp1613
g28
(g32
S'\xa6\x9e\x1c\xf5xw\x8b?'
p1614
tp1615
Rp1616
aa(lp1617
g28
(g32
S'\x98\x17\xff\xb7E\xc0\x8e?'
p1618
tp1619
Rp1620
aa(lp1621
g28
(g32
S'\xe1\xf9\xfc\xddg\x8a\xa2?'
p1622
tp1623
Rp1624
aa(lp1625
g28
(g32
S'5Wb\xaf[\xe8\x81?'
p1626
tp1627
Rp1628
aa(lp1629
g28
(g32
S'I\x84\x9eq\xca\xed\xaf?'
p1630
tp1631
Rp1632
aa(lp1633
g28
(g32
S'\xafB\x99T\x8f\xdd\x95?'
p1634
tp1635
Rp1636
aa(lp1637
g28
(g32
S'\x16\xe5K/\xc7D\x8c?'
p1638
tp1639
Rp1640
aa(lp1641
g28
(g32
S'x\xa9\x99/\x12\xff\x9c?'
p1642
tp1643
Rp1644
aa(lp1645
g28
(g32
S'\xaf\x18\xb3>Wi\x93?'
p1646
tp1647
Rp1648
aa(lp1649
g28
(g32
S'\xc64\x0bS\xb8\xe7\xa6?'
p1650
tp1651
Rp1652
aa(lp1653
g28
(g32
S' >\xa6k\xfat\x8c?'
p1654
tp1655
Rp1656
aa(lp1657
g28
(g32
S'l\xd8M+\x80\xc0\xaa?'
p1658
tp1659
Rp1660
aa(lp1661
g28
(g32
S'\xb9(\xc9\xa36\xbe\xa9?'
p1662
tp1663
Rp1664
aa(lp1665
g28
(g32
S'X$%\x08;\x91\x9c?'
p1666
tp1667
Rp1668
aa(lp1669
g28
(g32
S'p\xbf\x96\x05\xed\xb4\x94?'
p1670
tp1671
Rp1672
aa(lp1673
g28
(g32
S'B_\x1b\xc2=w\x96?'
p1674
tp1675
Rp1676
aa(lp1677
g28
(g32
S'\x1d\xaaDH\x8d{\xb7?'
p1678
tp1679
Rp1680
aa(lp1681
g28
(g32
S'\x18}rPz\x8e\xb8?'
p1682
tp1683
Rp1684
aasg196
(lp1685
F10.521183967590332
aF10.521183967590332
aF10.059303045272827
aF11.27522087097168
aF12.804343938827515
aF9.7604660987854
aF14.450407981872559
aF10.306303977966309
aF12.12227201461792
aF11.91391396522522
aF10.120364904403687
aF11.054805040359497
aF9.682315111160278
aF12.220968961715698
aF10.25686502456665
aF9.363729000091553
aF8.665889024734497
aF11.655802011489868
aF12.00777816772461
aF12.769678115844727
aF11.007939100265503
assS'X3'
p1686
(dp1687
g3
(lp1688
(lp1689
I51
aag1689
a(lp1690
I51
aa(lp1691
I53
aa(lp1692
I54
aa(lp1693
I54
aa(lp1694
I55
aa(lp1695
I51
aa(lp1696
I52
aa(lp1697
I52
aa(lp1698
I53
aa(lp1699
I54
aa(lp1700
I51
aa(lp1701
I56
aa(lp1702
I51
aa(lp1703
I53
aa(lp1704
I53
aa(lp1705
I54
aa(lp1706
I53
aa(lp1707
I53
aa(lp1708
I52
aasg25
(lp1709
(lp1710
g28
(g32
S'\x94\xd9\xac\n\xe93w?'
p1711
tp1712
Rp1713
aag1710
a(lp1714
g28
(g32
S'\xd0^\xba\x194\xa4\x8a?'
p1715
tp1716
Rp1717
aa(lp1718
g28
(g32
S'P\x0c\xb8\x08\xdf\xf8\x80?'
p1719
tp1720
Rp1721
aa(lp1722
g28
(g32
S'jb\xe1\xbb\xd3j|?'
p1723
tp1724
Rp1725
aa(lp1726
g28
(g32
S'\xf6\x0b\x86\x80\x07\xd8~?'
p1727
tp1728
Rp1729
aa(lp1730
g28
(g32
S'm\xaaKo\xe4\x04\x8a?'
p1731
tp1732
Rp1733
aa(lp1734
g28
(g32
S'\x8c\xb8t<\x85\x89\x83?'
p1735
tp1736
Rp1737
aa(lp1738
g28
(g32
S'72&\xf6\xef\x87\x8b?'
p1739
tp1740
Rp1741
aa(lp1742
g28
(g32
S'\x00\xa8?Q5\x18g?'
p1743
tp1744
Rp1745
aa(lp1746
g28
(g32
S'\x87\x91"\x86\x92\xd7\x87?'
p1747
tp1748
Rp1749
aa(lp1750
g28
(g32
S'|?dN\x9c<\x82?'
p1751
tp1752
Rp1753
aa(lp1754
g28
(g32
S'\x81m>\xeb:\xcf\x85?'
p1755
tp1756
Rp1757
aa(lp1758
g28
(g32
S'\x9a\xaa\xf8\xc7\xd5\x1a\x8c?'
p1759
tp1760
Rp1761
aa(lp1762
g28
(g32
S'\r\x98Y\xdf!*\x8c?'
p1763
tp1764
Rp1765
aa(lp1766
g28
(g32
S'\xd0\xa0\xf1vP\xc0}?'
p1767
tp1768
Rp1769
aa(lp1770
g28
(g32
S'\xab\x04\x8f^|0\x83?'
p1771
tp1772
Rp1773
aa(lp1774
g28
(g32
S"\xfa'{\xa1\xfd\x8a}?"
p1775
tp1776
Rp1777
aa(lp1778
g28
(g32
S'E\xa2||\xfe\x19v?'
p1779
tp1780
Rp1781
aa(lp1782
g28
(g32
S'\xfd\xdf\xdc\x89\xef\xb4\x91?'
p1783
tp1784
Rp1785
aa(lp1786
g28
(g32
S'\x1ce]2i\xa6\x80?'
p1787
tp1788
Rp1789
aasg114
(lp1790
(lp1791
g28
(g32
S'{\xef\xcfOs,(?'
p1792
tp1793
Rp1794
aag1791
a(lp1795
g28
(g32
S'\xa5M\x8b\xc0\x112\x95?'
p1796
tp1797
Rp1798
aa(lp1799
g28
(g32
S'\xe0\xa2Id\x0bWz?'
p1800
tp1801
Rp1802
aa(lp1803
g28
(g32
S'C4\xbc\xd3Y\n{?'
p1804
tp1805
Rp1806
aa(lp1807
g28
(g32
S'\x9a\x8b\x83\xf1/\xd9\x81?'
p1808
tp1809
Rp1810
aa(lp1811
g28
(g32
S'?\xb7\x12#N\xa3\xa1?'
p1812
tp1813
Rp1814
aa(lp1815
g28
(g32
S'OYr\xcc\xe8\xae\x9b?'
p1816
tp1817
Rp1818
aa(lp1819
g28
(g32
S'\x14\xf9I\x01\xb2\xf4\x89?'
p1820
tp1821
Rp1822
aa(lp1823
g28
(g32
S'7\x039W\xff\xcc\x84?'
p1824
tp1825
Rp1826
aa(lp1827
g28
(g32
S'\xd1\x1a\x1e\xe0dX\x95?'
p1828
tp1829
Rp1830
aa(lp1831
g28
(g32
S'\xf7\x99\x82\xb6\x80\xca\x84?'
p1832
tp1833
Rp1834
aa(lp1835
g28
(g32
S'e\x80\xf6\xc7\xd1\xea\x86?'
p1836
tp1837
Rp1838
aa(lp1839
g28
(g32
S'\x93\x19\xd0\xf34\x86\x89?'
p1840
tp1841
Rp1842
aa(lp1843
g28
(g32
S'\xed\xa4\xc7\x11\x98\xa5\xa1?'
p1844
tp1845
Rp1846
aa(lp1847
g28
(g32
S'\x8f\xc7\xab\xe6\xa4\xfa\xb7?'
p1848
tp1849
Rp1850
aa(lp1851
g28
(g32
S'\x03v\xf43\x83c\x89?'
p1852
tp1853
Rp1854
aa(lp1855
g28
(g32
S',aemj\xc2~?'
p1856
tp1857
Rp1858
aa(lp1859
g28
(g32
S'V\xd1\xfa\x84C\x04\x82?'
p1860
tp1861
Rp1862
aa(lp1863
g28
(g32
S'\xd5\xa8\x96D}\xe3\x9f?'
p1864
tp1865
Rp1866
aa(lp1867
g28
(g32
S'\x13\x9c\xdb\xf5\x0eN\xaa?'
p1868
tp1869
Rp1870
aasg196
(lp1871
F9.432399988174438
aF9.432399988174438
aF10.329376935958862
aF11.960622072219849
aF13.841845035552979
aF10.212509870529175
aF11.42906403541565
aF11.427989959716797
aF14.014702796936035
aF13.261713981628418
aF10.350152015686035
aF11.26965594291687
aF10.792979955673218
aF12.846487045288086
aF11.214564800262451
aF15.510644912719727
aF11.122720003128052
aF12.585291862487793
aF9.796535968780518
aF10.026103019714355
aF12.017812967300415
assS'X1'
p1872
(dp1873
g3
(lp1874
(lp1875
I52
aag1875
a(lp1876
I54
aa(lp1877
I55
aa(lp1878
I52
aa(lp1879
I51
aa(lp1880
I51
aa(lp1881
I55
aa(lp1882
I53
aa(lp1883
I54
aa(lp1884
I52
aa(lp1885
I53
aa(lp1886
I55
aa(lp1887
I52
aa(lp1888
I52
aa(lp1889
I53
aa(lp1890
I56
aa(lp1891
I51
aa(lp1892
I52
aa(lp1893
I52
aa(lp1894
I52
aasg25
(lp1895
(lp1896
g28
(g32
S'%k6+\x1a\x94\x92?'
p1897
tp1898
Rp1899
aag1896
a(lp1900
g28
(g32
S')\x19$\xa6\xbb\x03\x8f?'
p1901
tp1902
Rp1903
aa(lp1904
g28
(g32
S'Bu2\xcf\x19\xadp?'
p1905
tp1906
Rp1907
aa(lp1908
g28
(g32
S'\x07\xa9o\xfd\xfaGu?'
p1909
tp1910
Rp1911
aa(lp1912
g28
(g32
S'p\x95\xf2\x1f!\xf4z?'
p1913
tp1914
Rp1915
aa(lp1916
g28
(g32
S"&\xfa'\xbf\xc0U\x98?"
p1917
tp1918
Rp1919
aa(lp1920
g28
(g32
S'M\x18\xdd\xfd\x1c\xb3\x85?'
p1921
tp1922
Rp1923
aa(lp1924
g28
(g32
S'\xbadU\xd8"\x84\x92?'
p1925
tp1926
Rp1927
aa(lp1928
g28
(g32
S'Z\x92\x03:_{\x95?'
p1929
tp1930
Rp1931
aa(lp1932
g28
(g32
S'\xdc\x16\xca7\n\xad\x84?'
p1933
tp1934
Rp1935
aa(lp1936
g28
(g32
S'n\x7f8}\x19\xaa\x97?'
p1937
tp1938
Rp1939
aa(lp1940
g28
(g32
S'i\xffP\x1f\xc3\xd2\x83?'
p1941
tp1942
Rp1943
aa(lp1944
g28
(g32
S't\x02 ?>\xeax?'
p1945
tp1946
Rp1947
aa(lp1948
g28
(g32
S'N2\x99^\xe9A\x84?'
p1949
tp1950
Rp1951
aa(lp1952
g28
(g32
S'\xa5\x85\xd1\xa1`Mm?'
p1953
tp1954
Rp1955
aa(lp1956
g28
(g32
S'\xfe\xa4\xaa\x86E\xe1\xa0?'
p1957
tp1958
Rp1959
aa(lp1960
g28
(g32
S'-[\x10\x14xSz?'
p1961
tp1962
Rp1963
aa(lp1964
g28
(g32
S'N\xe8\xf1\xb5_n\x92?'
p1965
tp1966
Rp1967
aa(lp1968
g28
(g32
S'\r\xbc5\xc2\xa6*p?'
p1969
tp1970
Rp1971
aa(lp1972
g28
(g32
S'\xa4\x00\x01/\xe6\x18w?'
p1973
tp1974
Rp1975
aasg114
(lp1976
(lp1977
g28
(g32
S'\xf3,\x15\xf5B\x9c\x96?'
p1978
tp1979
Rp1980
aag1977
a(lp1981
g28
(g32
S'\x9e\x96\xde\x8a|\x88\xb5?'
p1982
tp1983
Rp1984
aa(lp1985
g28
(g32
S'Q\xca.\xe7\x8f\xb3\xb5?'
p1986
tp1987
Rp1988
aa(lp1989
g28
(g32
S']\xc4dv%\xf5\xb8?'
p1990
tp1991
Rp1992
aa(lp1993
g28
(g32
S'ZI\x00\xeb\xd1?\x95?'
p1994
tp1995
Rp1996
aa(lp1997
g28
(g32
S'-*\x97a\x913\xa2?'
p1998
tp1999
Rp2000
aa(lp2001
g28
(g32
S'\x1a\xf7xK\x0f\xa2\xa0?'
p2002
tp2003
Rp2004
aa(lp2005
g28
(g32
S'B\r\x84\x11&K\xab?'
p2006
tp2007
Rp2008
aa(lp2009
g28
(g32
S"\xc67\xf4'\x94~\xa1?"
p2010
tp2011
Rp2012
aa(lp2013
g28
(g32
S'm\x90<\xf5Zw\xb1?'
p2014
tp2015
Rp2016
aa(lp2017
g28
(g32
S'5\xa2M\xa8\xe9g\xb0?'
p2018
tp2019
Rp2020
aa(lp2021
g28
(g32
S'\x02\x91\x9c\xcf\x97:\xa6?'
p2022
tp2023
Rp2024
aa(lp2025
g28
(g32
S'a\xac=\x01k!{?'
p2026
tp2027
Rp2028
aa(lp2029
g28
(g32
S'~\\t\xbaE\xa1\xab?'
p2030
tp2031
Rp2032
aa(lp2033
g28
(g32
S'\xb3!\x03\xa1\xbbA\x95?'
p2034
tp2035
Rp2036
aa(lp2037
g28
(g32
S'N\xc4B\\\xb7\xe4\xb0?'
p2038
tp2039
Rp2040
aa(lp2041
g28
(g32
S'\xb0\xfa*\x90\xf0k\xab?'
p2042
tp2043
Rp2044
aa(lp2045
g28
(g32
S'\xbd\x1b\xe2Z\xd0\x07\x9e?'
p2046
tp2047
Rp2048
aa(lp2049
g28
(g32
S'\xb6\xc0\xc6Wt\xdd\xbb?'
p2050
tp2051
Rp2052
aa(lp2053
g28
(g32
S'\xbfK\x11F\xba\xc2\x96?'
p2054
tp2055
Rp2056
aasg196
(lp2057
F11.864553928375244
aF11.864553928375244
aF15.797072172164917
aF16.757799863815308
aF9.432640075683594
aF9.672375917434692
aF15.580229043960571
aF13.541010856628418
aF10.14432978630066
aF13.029298067092896
aF11.206478118896484
aF11.036132097244263
aF8.71478819847107
aF16.923705101013184
aF16.77499485015869
aF12.066745042800903
aF12.85861611366272
aF12.567646026611328
aF11.399795055389404
aF10.408859014511108
aF14.047302007675171
assS'X4'
p2058
(dp2059
g3
(lp2060
(lp2061
I52
aag2061
a(lp2062
I51
aa(lp2063
I51
aa(lp2064
I53
aa(lp2065
I51
aa(lp2066
I53
aa(lp2067
I51
aa(lp2068
I51
aa(lp2069
I51
aa(lp2070
I52
aa(lp2071
I52
aa(lp2072
I51
aa(lp2073
I51
aa(lp2074
I51
aa(lp2075
I56
aa(lp2076
I51
aa(lp2077
I52
aa(lp2078
I52
aa(lp2079
I54
aa(lp2080
I53
aasg25
(lp2081
(lp2082
g28
(g32
S']fR\x9f\xfe\xb3\x90?'
p2083
tp2084
Rp2085
aag2082
a(lp2086
g28
(g32
S'\\\x92O\xe4\xb6|\x84?'
p2087
tp2088
Rp2089
aa(lp2090
g28
(g32
S'\xff\tmC\xdb\x81\x8e?'
p2091
tp2092
Rp2093
aa(lp2094
g28
(g32
S'\xd2C7Du\x92\x85?'
p2095
tp2096
Rp2097
aa(lp2098
g28
(g32
S'\x16o\x1a\x0e\xa8\xff\x99?'
p2099
tp2100
Rp2101
aa(lp2102
g28
(g32
S'\x88wu\x91\x195\x90?'
p2103
tp2104
Rp2105
aa(lp2106
g28
(g32
S'*$F\xe74\xad\x85?'
p2107
tp2108
Rp2109
aa(lp2110
g28
(g32
S" \xc4'p\xd0d\x86?"
p2111
tp2112
Rp2113
aa(lp2114
g28
(g32
S'\x06Y\x94\tx\xe9\x98?'
p2115
tp2116
Rp2117
aa(lp2118
g28
(g32
S'\xc2\xa6\xeb\xf7M\x94\x89?'
p2119
tp2120
Rp2121
aa(lp2122
g28
(g32
S'i\xff]\xda\xa9\x8c\x8c?'
p2123
tp2124
Rp2125
aa(lp2126
g28
(g32
S'\x12\xfc\xab\x18\x1cG\x81?'
p2127
tp2128
Rp2129
aa(lp2130
g28
(g32
S'\r\x9b\x13\x00\x19U\x85?'
p2131
tp2132
Rp2133
aa(lp2134
g28
(g32
S'FQ\xe2B\xa0\xd2\x84?'
p2135
tp2136
Rp2137
aa(lp2138
g28
(g32
S'\xe4\x1a\xe7\xd1m\xc6\x98?'
p2139
tp2140
Rp2141
aa(lp2142
g28
(g32
S'.\x80\x9d\xa4\xa95\x95?'
p2143
tp2144
Rp2145
aa(lp2146
g28
(g32
S'h6{3`\xb6y?'
p2147
tp2148
Rp2149
aa(lp2150
g28
(g32
S'\x0c\x05\xbc\x17L\\z?'
p2151
tp2152
Rp2153
aa(lp2154
g28
(g32
S', \x96g\xff\xd1u?'
p2155
tp2156
Rp2157
aa(lp2158
g28
(g32
S'40H\x17A&\x90?'
p2159
tp2160
Rp2161
aasg114
(lp2162
(lp2163
g28
(g32
S'\x8d\xe6AxSt\x8e?'
p2164
tp2165
Rp2166
aag2163
a(lp2167
g28
(g32
S'\xf0\x9e\xbaU\xf2,\x93?'
p2168
tp2169
Rp2170
aa(lp2171
g28
(g32
S'G\xde\\\x8c\x19\xbe\x9b?'
p2172
tp2173
Rp2174
aa(lp2175
g28
(g32
S'@\x1e\xadC~\x93\x99?'
p2176
tp2177
Rp2178
aa(lp2179
g28
(g32
S'i\x80\xe2\xec\x81\x91\xb1?'
p2180
tp2181
Rp2182
aa(lp2183
g28
(g32
S'\xda\x189g\x0b\x9c\x88?'
p2184
tp2185
Rp2186
aa(lp2187
g28
(g32
S'b\xec\x1c3\xa0Q\x98?'
p2188
tp2189
Rp2190
aa(lp2191
g28
(g32
S'\xa2\x001\xb4\xac\xfe\x9a?'
p2192
tp2193
Rp2194
aa(lp2195
g28
(g32
S'\x00\x00\x00\x00\x00\x00\x00\x00'
p2196
tp2197
Rp2198
aa(lp2199
g28
(g32
S'0\xa5\x928\x96\xde\x99?'
p2200
tp2201
Rp2202
aa(lp2203
g28
(g32
S'.\x89|\xb9\xeb\xc5\xac?'
p2204
tp2205
Rp2206
aa(lp2207
g28
(g32
S'h\x1d\x07X]\xbc\x89?'
p2208
tp2209
Rp2210
aa(lp2211
g28
(g32
S'\x17\xdcs\x11\xec\xce\xa6?'
p2212
tp2213
Rp2214
aa(lp2215
g28
(g32
S'\x87p\x85\x8f_-\xad?'
p2216
tp2217
Rp2218
aa(lp2219
g28
(g32
S'\xd2\xeef\x171\x17\xa0?'
p2220
tp2221
Rp2222
aa(lp2223
g28
(g32
S'\xf2\xdd\xbfv\xec\xc2\xa0?'
p2224
tp2225
Rp2226
aa(lp2227
g28
(g32
S'\xb8\xa1/\xcb\x81\x91\x9d?'
p2228
tp2229
Rp2230
aa(lp2231
g28
(g32
S'\xd0\xa2y\xd0S\x99\x9e?'
p2232
tp2233
Rp2234
aa(lp2235
g28
(g32
S'\xee3d\x04c\xafo?'
p2236
tp2237
Rp2238
aa(lp2239
g28
(g32
S'\x0b\x1c\x05\xc0\x9f-\xa5?'
p2240
tp2241
Rp2242
aasg196
(lp2243
F11.472110986709595
aF11.472110986709595
aF8.412235975265503
aF12.65756607055664
aF11.236607074737549
aF12.379964113235474
aF10.523847103118896
aF12.755175113677979
aF16.070719957351685
aF11.84663701057434
aF8.811711072921753
aF10.724956035614014
aF12.248178958892822
aF13.680098056793213
aF12.267421960830688
aF10.651304960250854
aF12.848644971847534
aF13.862955093383789
aF9.499259948730469
aF10.32630205154419
aF11.443595170974731
assS'X5'
p2244
(dp2245
g3
(lp2246
(lp2247
I54
aag2247
a(lp2248
I52
aa(lp2249
I52
aa(lp2250
I54
aa(lp2251
I53
aa(lp2252
I51
aa(lp2253
I54
aa(lp2254
I51
aa(lp2255
I53
aa(lp2256
I52
aa(lp2257
I52
aa(lp2258
I53
aa(lp2259
I54
aa(lp2260
I53
aa(lp2261
I55
aa(lp2262
I53
aa(lp2263
I53
aa(lp2264
I51
aa(lp2265
I51
aa(lp2266
I51
aasg25
(lp2267
(lp2268
g28
(g32
S'\xeaQ`\xe7\xf0\xc2\x90?'
p2269
tp2270
Rp2271
aag2268
a(lp2272
g28
(g32
S'|\xc0+#\xdc\xc8\x91?'
p2273
tp2274
Rp2275
aa(lp2276
g28
(g32
S'Z\x93}??\x1a\x89?'
p2277
tp2278
Rp2279
aa(lp2280
g28
(g32
S'\x08\xcaJ\x7f\xaeP\x8e?'
p2281
tp2282
Rp2283
aa(lp2284
g28
(g32
S'6\xfa\xcaD\xea\x97\x86?'
p2285
tp2286
Rp2287
aa(lp2288
g28
(g32
S'\xb6\xe9a\xebP!t?'
p2289
tp2290
Rp2291
aa(lp2292
g28
(g32
S'o\x96\x1c\x89\x1d\xae\x95?'
p2293
tp2294
Rp2295
aa(lp2296
g28
(g32
S'\x9a\x0b\xd2\xd9~,\x87?'
p2297
tp2298
Rp2299
aa(lp2300
g28
(g32
S'\x0c\xa1\xfbew\x02\x88?'
p2301
tp2302
Rp2303
aa(lp2304
g28
(g32
S'>\xc2N\xf9\xd6\xe4\xa2?'
p2305
tp2306
Rp2307
aa(lp2308
g28
(g32
S'\xf35\xe4\xbfu\xa6\xa0?'
p2309
tp2310
Rp2311
aa(lp2312
g28
(g32
S'\xf2\xde^_\x8f\xa5\x8c?'
p2313
tp2314
Rp2315
aa(lp2316
g28
(g32
S'@M\xa85\xe2\x92\x8d?'
p2317
tp2318
Rp2319
aa(lp2320
g28
(g32
S'pm:S\x96<\x9b?'
p2321
tp2322
Rp2323
aa(lp2324
g28
(g32
S'\xec\xfa\xd5\x84\xb0l\x7f?'
p2325
tp2326
Rp2327
aa(lp2328
g28
(g32
S'Z\xdfV\xa1Q\x93\x97?'
p2329
tp2330
Rp2331
aa(lp2332
g28
(g32
S'\x03I\xad\xf18\xa3r?'
p2333
tp2334
Rp2335
aa(lp2336
g28
(g32
S'0E%\xb8\xcdkz?'
p2337
tp2338
Rp2339
aa(lp2340
g28
(g32
S'\xb5\xb8Z6\xbb\xf8\x91?'
p2341
tp2342
Rp2343
aa(lp2344
g28
(g32
S'T\xca\x17\xbc\x94@\x85?'
p2345
tp2346
Rp2347
aasg114
(lp2348
(lp2349
g28
(g32
S'\x1d\xcbg\xac\x85\xe9\xb1?'
p2350
tp2351
Rp2352
aag2349
a(lp2353
g28
(g32
S'p\xd5\xeel\xa6\x81\x94?'
p2354
tp2355
Rp2356
aa(lp2357
g28
(g32
S'/S\xb9\x82y\xfe\xac?'
p2358
tp2359
Rp2360
aa(lp2361
g28
(g32
S'r\x8f\x1b\x02+\xf8\xb0?'
p2362
tp2363
Rp2364
aa(lp2365
g28
(g32
S'\x80SV\xfceI\x86?'
p2366
tp2367
Rp2368
aa(lp2369
g28
(g32
S'\xc0rv\xf4\xe8o\xb4?'
p2370
tp2371
Rp2372
aa(lp2373
g28
(g32
S'p9(\xb6\xba\xc0\xae?'
p2374
tp2375
Rp2376
aa(lp2377
g28
(g32
S'\xa438\x9f\x9f\xd2\x8f?'
p2378
tp2379
Rp2380
aa(lp2381
g28
(g32
S'\xdc\x00\xa2\xdb\x16\xe8\xa3?'
p2382
tp2383
Rp2384
aa(lp2385
g28
(g32
S'\xe1?E\x9b-"\x82?'
p2386
tp2387
Rp2388
aa(lp2389
g28
(g32
S'5\r\x01\x1a^\x1f\xb8?'
p2390
tp2391
Rp2392
aa(lp2393
g28
(g32
S'\xf5q\x1b9\xf0\n\x90?'
p2394
tp2395
Rp2396
aa(lp2397
g28
(g32
S'\xd9\xe0\xc9\x13\xc8\xdc\xa1?'
p2398
tp2399
Rp2400
aa(lp2401
g28
(g32
S'\x00\x00\x00\x00\x00\x00\x00\x00'
p2402
tp2403
Rp2404
aa(lp2405
g28
(g32
S'\xc0Z\x1f\xab\x7f}\x93?'
p2406
tp2407
Rp2408
aa(lp2409
g28
(g32
S'[\x99\x97<[\x1b\xab?'
p2410
tp2411
Rp2412
aa(lp2413
g28
(g32
S'\xdd(\xa27\xd3\xef\xa4?'
p2414
tp2415
Rp2416
aa(lp2417
g28
(g32
S'\xde2\x97\x12H\\\x92?'
p2418
tp2419
Rp2420
aa(lp2421
g28
(g32
S'ph\x91*\xbd\xf0\x91?'
p2422
tp2423
Rp2424
aa(lp2425
g28
(g32
S'\xaa=\x03<u\xdd\x85?'
p2426
tp2427
Rp2428
aasg196
(lp2429
F10.630292892456055
aF10.630292892456055
aF9.582616090774536
aF12.835462093353271
aF11.692738056182861
aF12.321263790130615
aF13.126743078231812
aF10.534621953964233
aF13.130050897598267
aF10.86748194694519
aF10.939186096191406
aF9.531554937362671
aF11.510989904403687
aF12.250655889511108
aF16.387102127075195
aF12.755033016204834
aF10.834534883499146
aF12.740133047103882
aF12.215036869049072
aF12.163969993591309
aF10.227328062057495
ass.