(dp0
S'P2'
p1
(dp2
S'evals'
p3
(lp4
(lp5
I51
aag5
a(lp6
I52
aa(lp7
I53
aa(lp8
I52
aa(lp9
I51
aa(lp10
I51
aa(lp11
I52
aa(lp12
I52
aa(lp13
I53
aa(lp14
I52
aa(lp15
I52
aa(lp16
I52
aa(lp17
I52
aa(lp18
I51
aa(lp19
I51
aa(lp20
I53
aa(lp21
I52
aa(lp22
I52
aa(lp23
I51
aa(lp24
I52
aasS'igd'
p25
(lp26
(lp27
cnumpy.core.multiarray
scalar
p28
(cnumpy
dtype
p29
(S'f8'
p30
I0
I1
tp31
Rp32
(I3
S'<'
p33
NNNI-1
I-1
I0
tp34
bS'{\x8aE\xda\xe7r\xd2?'
p35
tp36
Rp37
aag27
a(lp38
g28
(g32
S'\xce\x95\xfc\xf0:\xcf\x9d?'
p39
tp40
Rp41
aa(lp42
g28
(g32
S'j?h\xd1q\x11\xb4?'
p43
tp44
Rp45
aa(lp46
g28
(g32
S'\xc60\x19\x8cj\xe7\xcf?'
p47
tp48
Rp49
aa(lp50
g28
(g32
S'\xabf\xc7\x96\n\xcf\xb0?'
p51
tp52
Rp53
aa(lp54
g28
(g32
S'2G\x80x\x16g\xd1?'
p55
tp56
Rp57
aa(lp58
g28
(g32
S'\xd3\xc2{\x14\xd9\xf3\xbd?'
p59
tp60
Rp61
aa(lp62
g28
(g32
S'.\x17\xcbU\xfb\xf9\xc3?'
p63
tp64
Rp65
aa(lp66
g28
(g32
S'\xdaI\xbdX\xabv\xba?'
p67
tp68
Rp69
aa(lp70
g28
(g32
S'\xab\xe4\x00\xdbu\x99\xba?'
p71
tp72
Rp73
aa(lp74
g28
(g32
S'\xb8?GX|\x04\xcf?'
p75
tp76
Rp77
aa(lp78
g28
(g32
S'\x8f\xf4bqu\xba\xc8?'
p79
tp80
Rp81
aa(lp82
g28
(g32
S'\xfbW\xa3\x14\xd6,\xbc?'
p83
tp84
Rp85
aa(lp86
g28
(g32
S'\xb6j\xbd\x0e\xda\xdb\xcf?'
p87
tp88
Rp89
aa(lp90
g28
(g32
S'\x00)\x83&\x1c\x02\xbc?'
p91
tp92
Rp93
aa(lp94
g28
(g32
S'X\n-D\xf0\xac\xc9?'
p95
tp96
Rp97
aa(lp98
g28
(g32
S'\xaa\xc0y\x13H\x9e\xbe?'
p99
tp100
Rp101
aa(lp102
g28
(g32
S'\xea\x92\xdf}\x9eA\xd0?'
p103
tp104
Rp105
aa(lp106
g28
(g32
S'\xef%\xc5I\xccc\xc5?'
p107
tp108
Rp109
aa(lp110
g28
(g32
S'\xbe\xb0|\xff\xbei\xd0?'
p111
tp112
Rp113
aasS'gen_dist'
p114
(lp115
(lp116
g28
(g32
S'f\xc2H\xdest\xa4?'
p117
tp118
Rp119
aag116
a(lp120
g28
(g32
S'x\x8e\xf6\xe9\xb1\xfe\xba?'
p121
tp122
Rp123
aa(lp124
g28
(g32
S'\\\xd7\x04\x9ax\xaa\xc1?'
p125
tp126
Rp127
aa(lp128
g28
(g32
S'\x02\x86\xab\xc0*\x8e\xbf?'
p129
tp130
Rp131
aa(lp132
g28
(g32
S'&?\xa5\xf5\xc5\x1e\xc2?'
p133
tp134
Rp135
aa(lp136
g28
(g32
S".\x08\xc3}\xd0'\xd2?"
p137
tp138
Rp139
aa(lp140
g28
(g32
S'Vy\xa4\x83*\x8c\xbf?'
p141
tp142
Rp143
aa(lp144
g28
(g32
S'\xd5\xaa\x83\x8a\xc2\xb4\xcb?'
p145
tp146
Rp147
aa(lp148
g28
(g32
S'-\xcd\t\x06|w\xc1?'
p149
tp150
Rp151
aa(lp152
g28
(g32
S'~\x04\xf2\x831\xb6\xc3?'
p153
tp154
Rp155
aa(lp156
g28
(g32
S'\x0b&\xbe\x04\xb2k\xa7?'
p157
tp158
Rp159
aa(lp160
g28
(g32
S'\x13\x88^\xb1I\x1f\xc9?'
p161
tp162
Rp163
aa(lp164
g28
(g32
S'E\xae\xda\xbd(=\xbf?'
p165
tp166
Rp167
aa(lp168
g28
(g32
S'xP\xf7\x19\xf0Z\xc5?'
p169
tp170
Rp171
aa(lp172
g28
(g32
S'6&#\x06\xf4\xed\xb6?'
p173
tp174
Rp175
aa(lp176
g28
(g32
S'\x1eN\xb0Y\xee\xba\xb4?'
p177
tp178
Rp179
aa(lp180
g28
(g32
S'\x03\xa2\xf2\xc1H\xb3\xc7?'
p181
tp182
Rp183
aa(lp184
g28
(g32
S'P|\x07T\xf1\x94\xbe?'
p185
tp186
Rp187
aa(lp188
g28
(g32
S'\x1eH\xea\x87\xbe\x90\xc2?'
p189
tp190
Rp191
aa(lp192
g28
(g32
S'\xca\x16\x92\x15\x9bO\xbb?'
p193
tp194
Rp195
aasS'time'
p196
(lp197
F7.364294052124023
aF7.364294052124023
aF5.3192219734191895
aF8.348782062530518
aF9.886012077331543
aF9.116365194320679
aF8.349529027938843
aF8.401906967163086
aF9.094372034072876
aF6.608267784118652
aF8.50220012664795
aF7.4288599491119385
aF8.304280996322632
aF7.667346000671387
aF7.792255163192749
aF6.79749608039856
aF6.622641086578369
aF11.098280906677246
aF10.814419031143188
aF7.5710289478302
aF7.589472055435181
assS'P3'
p198
(dp199
g3
(lp200
(lp201
I52
aag201
a(lp202
I52
aa(lp203
I53
aa(lp204
I52
aa(lp205
I52
aa(lp206
I55
aa(lp207
I51
aa(lp208
I54
aa(lp209
I51
aa(lp210
I52
aa(lp211
I53
aa(lp212
I52
aa(lp213
I52
aa(lp214
I51
aa(lp215
I51
aa(lp216
I51
aa(lp217
I52
aa(lp218
I55
aa(lp219
I51
aa(lp220
I53
aasg25
(lp221
(lp222
g28
(g32
S'<\xab\xb4p\xbb"\xba?'
p223
tp224
Rp225
aag222
a(lp226
g28
(g32
S'\xeb\x01\xc4\xa7\xec\xb1\xa4?'
p227
tp228
Rp229
aa(lp230
g28
(g32
S'\xc1\xa1\xca\x1d\xba\xe4\xb3?'
p231
tp232
Rp233
aa(lp234
g28
(g32
S'\xc7\x08\xf0\xdcI\xe1\xa4?'
p235
tp236
Rp237
aa(lp238
g28
(g32
S'\n\xe9\x92\xccuJ\xa5?'
p239
tp240
Rp241
aa(lp242
g28
(g32
S'o\n\x85\x93\x18\xc1\xa1?'
p243
tp244
Rp245
aa(lp246
g28
(g32
S'YG\x9a\xda4\x83\xa3?'
p247
tp248
Rp249
aa(lp250
g28
(g32
S'\xcf?#\x11#\x81\xa1?'
p251
tp252
Rp253
aa(lp254
g28
(g32
S'\xeb\x9f9 \x1d\x8c\xa6?'
p255
tp256
Rp257
aa(lp258
g28
(g32
S'\x01\xaf\xe1\xe2\xb8\x8f\xa5?'
p259
tp260
Rp261
aa(lp262
g28
(g32
S'\xc3\xdf\x91\xf4\xdf\xd2\xa2?'
p263
tp264
Rp265
aa(lp266
g28
(g32
S"\xbf'>\x04J\x8c\xbd?"
p267
tp268
Rp269
aa(lp270
g28
(g32
S',\xe7\xb95\xfei\xb2?'
p271
tp272
Rp273
aa(lp274
g28
(g32
S'*~W\x88\x01\x82\xba?'
p275
tp276
Rp277
aa(lp278
g28
(g32
S'\xbflh\x15\x80-\xd3?'
p279
tp280
Rp281
aa(lp282
g28
(g32
S'\xbf\x19\x11\r\x9d\xc1\xa6?'
p283
tp284
Rp285
aa(lp286
g28
(g32
S'\x9c\xfeN\x0b\xd3\x94\xa6?'
p287
tp288
Rp289
aa(lp290
g28
(g32
S'\\F\x13\xfb\x1b \xaf?'
p291
tp292
Rp293
aa(lp294
g28
(g32
S'l*~\xb3>\xbd\xa3?'
p295
tp296
Rp297
aa(lp298
g28
(g32
S'tRvp$\xa9\xa9?'
p299
tp300
Rp301
aasg114
(lp302
(lp303
g28
(g32
S'0\n7#\x1a\xbek?'
p304
tp305
Rp306
aag303
a(lp307
g28
(g32
S'\x85\x8d\xec\\\xa5\x90\xa0?'
p308
tp309
Rp310
aa(lp311
g28
(g32
S'\xb3\x17\x9b\x8b\xf1\x13j?'
p312
tp313
Rp314
aa(lp315
g28
(g32
S'\xf0\xf5F\x97T\xaf\x9e?'
p316
tp317
Rp318
aa(lp319
g28
(g32
S'T\x0c\xcc\x97\xf1\xeb\x9d?'
p320
tp321
Rp322
aa(lp323
g28
(g32
S'\xbb.\x96\xe4\xca\xc7\xa5?'
p324
tp325
Rp326
aa(lp327
g28
(g32
S'\x9dF%\x0c\xe1o\x9f?'
p328
tp329
Rp330
aa(lp331
g28
(g32
S'j\x12\xda\x99\x8e\xb2\x98?'
p332
tp333
Rp334
aa(lp335
g28
(g32
S'\xb6\x11Ue04\x9b?'
p336
tp337
Rp338
aa(lp339
g28
(g32
S'5J0\x82\xbb\xb0\xa1?'
p340
tp341
Rp342
aa(lp343
g28
(g32
S'\xc0o\x9f\xa1\xb5@\x91?'
p344
tp345
Rp346
aa(lp347
g28
(g32
S'\xec:\xb4\x0e[\x85\x8b?'
p348
tp349
Rp350
aa(lp351
g28
(g32
S'\xe1\x8b$\xcfF\xcf\x95?'
p352
tp353
Rp354
aa(lp355
g28
(g32
S'\xa7%\x07?q\x8fb?'
p356
tp357
Rp358
aa(lp359
g28
(g32
S'\x00\x00\x00\x00\x00\x00\x00\x00'
p360
tp361
Rp362
aa(lp363
g28
(g32
S'\xbf\xdc\xad\x04\xe6\xd7\xb4?'
p364
tp365
Rp366
aa(lp367
g28
(g32
S"\xa6O'\x11)\xad\xa0?"
p368
tp369
Rp370
aa(lp371
g28
(g32
S'\x99%\xd3-^\xd7\xb4?'
p372
tp373
Rp374
aa(lp375
g28
(g32
S'\xb4JN2\x08\x8a\xaa?'
p376
tp377
Rp378
aa(lp379
g28
(g32
S'W\x0e\x89W\x13\x02\x9d?'
p380
tp381
Rp382
aasg196
(lp383
F9.85548710823059
aF9.85548710823059
aF12.736263990402222
aF10.945544004440308
aF11.28159213066101
aF9.483352184295654
aF9.630445003509521
aF10.990385055541992
aF9.462706089019775
aF10.425994157791138
aF10.184005975723267
aF9.647623062133789
aF8.019232988357544
aF12.697837829589844
aF10.390726089477539
aF12.36029601097107
aF9.231626033782959
aF9.271669864654541
aF9.865012884140015
aF9.39164113998413
aF8.832156896591187
assS'P1'
p384
(dp385
g3
(lp386
(lp387
I52
aag387
a(lp388
I51
aa(lp389
I52
aa(lp390
I53
aa(lp391
I52
aa(lp392
I53
aa(lp393
I52
aa(lp394
I53
aa(lp395
I53
aa(lp396
I51
aa(lp397
I52
aa(lp398
I51
aa(lp399
I52
aa(lp400
I51
aa(lp401
I53
aa(lp402
I51
aa(lp403
I53
aa(lp404
I51
aa(lp405
I52
aa(lp406
I52
aasg25
(lp407
(lp408
g28
(g32
S'\xc5F\xc2\xbeA\x13\xc4?'
p409
tp410
Rp411
aag408
a(lp412
g28
(g32
S'\xc5F\xc2\xbeA\x13\xc4?'
p413
tp414
Rp415
aa(lp416
g28
(g32
S'\x11\xb1\x18>\xff\xb6\x8e?'
p417
tp418
Rp419
aa(lp420
g28
(g32
S'%\xfe1\xf6\xe8\xbb\xa1?'
p421
tp422
Rp423
aa(lp424
g28
(g32
S'q\xd0C-\xdfZ\x96?'
p425
tp426
Rp427
aa(lp428
g28
(g32
S'\xe6\xd9\xa3\xf6\xafx\x9a?'
p429
tp430
Rp431
aa(lp432
g28
(g32
S'd\xa7\x13O\x1do\xa2?'
p433
tp434
Rp435
aa(lp436
g28
(g32
S'\xc8V\x02G\x82X\x92?'
p437
tp438
Rp439
aa(lp440
g28
(g32
S'j\xf9\xad\xf3\xb7\xbe\x9d?'
p441
tp442
Rp443
aa(lp444
g28
(g32
S'Ss\x98}\xd5\xa4\xa3?'
p445
tp446
Rp447
aa(lp448
g28
(g32
S'$\x1d\xdf\xd57\x87\xa4?'
p449
tp450
Rp451
aa(lp452
g28
(g32
S'\x13D\x96\xa9\x8e\xc2\x86?'
p453
tp454
Rp455
aa(lp456
g28
(g32
S'/\xe1\xb9(?\xd7\x9f?'
p457
tp458
Rp459
aa(lp460
g28
(g32
S'"\xc1\x00\x16#U\xb0?'
p461
tp462
Rp463
aa(lp464
g28
(g32
S'\xc5F\xc2\xbeA\x13\xc4?'
p465
tp466
Rp467
aa(lp468
g28
(g32
S'\xc3q$\xa0\xa7\xb1\xc2?'
p469
tp470
Rp471
aa(lp472
g28
(g32
S'\xb1\x99\xc5\x01\x13\xb3\xa7?'
p473
tp474
Rp475
aa(lp476
g28
(g32
S'\xc2\x8f\xaaL;Y\x8e?'
p477
tp478
Rp479
aa(lp480
g28
(g32
S"\xbd\x07'\n\xca;\xa8?"
p481
tp482
Rp483
aa(lp484
g28
(g32
S'\x96}(\xd7\xae\xd1\xa1?'
p485
tp486
Rp487
aasg114
(lp488
(lp489
g28
(g32
S'Q\x91*\x89\xe7\xf5\n?'
p490
tp491
Rp492
aag489
a(lp493
g28
(g32
S'Q\x91*\x89\xe7\xf5\n?'
p494
tp495
Rp496
aa(lp497
g28
(g32
S'\xec\x1d\x7fd\xec\x94{?'
p498
tp499
Rp500
aa(lp501
g28
(g32
S'\xdd\x9f\xe4\xe2\xe2\xe0N?'
p502
tp503
Rp504
aa(lp505
g28
(g32
S'w\x89d\xe8\x94\x83\x89?'
p506
tp507
Rp508
aa(lp509
g28
(g32
S'\x14\xa3J=\\6\x97?'
p510
tp511
Rp512
aa(lp513
g28
(g32
S'G3/+b\xe0:?'
p514
tp515
Rp516
aa(lp517
g28
(g32
S'3\xd3c\xee$\x1c\x86?'
p518
tp519
Rp520
aa(lp521
g28
(g32
S'\xad\xb5z2e\xd0\x8e?'
p522
tp523
Rp524
aa(lp525
g28
(g32
S'\x9c\x84\xdf\xa3\xc5y\x91?'
p526
tp527
Rp528
aa(lp529
g28
(g32
S'2ee\xa3\x04\xfdr?'
p530
tp531
Rp532
aa(lp533
g28
(g32
S'\xde\\P\x86\xe6=z?'
p534
tp535
Rp536
aa(lp537
g28
(g32
S'\x82R\x93g\xef(\x8f?'
p538
tp539
Rp540
aa(lp541
g28
(g32
S'\x93\x13\x0f]\x92\x19\x8d?'
p542
tp543
Rp544
aa(lp545
g28
(g32
S'Q\x91*\x89\xe7\xf5\n?'
p546
tp547
Rp548
aa(lp549
g28
(g32
S'\x94om\xa7H\x11+?'
p550
tp551
Rp552
aa(lp553
g28
(g32
S'\xbf\t\xe5s\x17\xf5\x93?'
p554
tp555
Rp556
aa(lp557
g28
(g32
S'\x98\x03u\x842\xa1\x95?'
p558
tp559
Rp560
aa(lp561
g28
(g32
S'\xe7\xd6\xc8\x0e(\xfdw?'
p562
tp563
Rp564
aa(lp565
g28
(g32
S'\xf0\xef\x938\x8e\xc2\x95?'
p566
tp567
Rp568
aasg196
(lp569
F9.014203071594238
aF9.014203071594238
aF8.061886072158813
aF8.040897846221924
aF9.285871982574463
aF8.151319980621338
aF6.240406036376953
aF7.948645114898682
aF8.110013008117676
aF8.492051839828491
aF7.766906023025513
aF8.217272996902466
aF9.962742805480957
aF8.08728313446045
aF6.297370910644531
aF9.507845163345337
aF6.261967897415161
aF8.685132026672363
aF9.043798923492432
aF6.948498964309692
aF6.7447099685668945
assS'P4'
p570
(dp571
g3
(lp572
(lp573
I51
aag573
a(lp574
I52
aa(lp575
I51
aa(lp576
I52
aa(lp577
I52
aa(lp578
I51
aa(lp579
I52
aa(lp580
I52
aa(lp581
I52
aa(lp582
I53
aa(lp583
I52
aa(lp584
I53
aa(lp585
I52
aa(lp586
I53
aa(lp587
I54
aa(lp588
I52
aa(lp589
I51
aa(lp590
I53
aa(lp591
I53
aa(lp592
I52
aasg25
(lp593
(lp594
g28
(g32
S'a \xb5\xc7N\x89\xe4?'
p595
tp596
Rp597
aag594
a(lp598
g28
(g32
S'\x10`+\x86\xdd(\xe9?'
p599
tp600
Rp601
aa(lp602
g28
(g32
S'\x86\xeb\xe7QhX\xe6?'
p603
tp604
Rp605
aa(lp606
g28
(g32
S'\xe8\xbb\xec)L\xf3\xe8?'
p607
tp608
Rp609
aa(lp610
g28
(g32
S'\x94\x9f\xa3B\xef\\\xe8?'
p611
tp612
Rp613
aa(lp614
g28
(g32
S'cR\xdd\xc5pm\xe6?'
p615
tp616
Rp617
aa(lp618
g28
(g32
S'a\x86)\xe3\xd0F\xe6?'
p619
tp620
Rp621
aa(lp622
g28
(g32
S'\xe9\xf1\x82N]\xa7\xe8?'
p623
tp624
Rp625
aa(lp626
g28
(g32
S'\x00\x03\xbf\xb4x\xd1\xe7?'
p627
tp628
Rp629
aa(lp630
g28
(g32
S'\xf8\x9f\xadN\x05H\xe6?'
p631
tp632
Rp633
aa(lp634
g28
(g32
S'\x8a]JeI\x14\xe9?'
p635
tp636
Rp637
aa(lp638
g28
(g32
S'\xbfr-/\xb1\xe6\xe8?'
p639
tp640
Rp641
aa(lp642
g28
(g32
S'Cqj,\xbf3\xe8?'
p643
tp644
Rp645
aa(lp646
g28
(g32
S'\x12\xa4\x9f\xfd\xf5\xac\xe9?'
p647
tp648
Rp649
aa(lp650
g28
(g32
S'(h\x00\x0fy\x8a\xe9?'
p651
tp652
Rp653
aa(lp654
g28
(g32
S'\x96\x0fE\xd0\xb7\xf5\xe8?'
p655
tp656
Rp657
aa(lp658
g28
(g32
S'\xedm6\x8bt\xc5\xe7?'
p659
tp660
Rp661
aa(lp662
g28
(g32
S'N\xef\xbd (:\xe5?'
p663
tp664
Rp665
aa(lp666
g28
(g32
S'%\x15\xa7A5_\xe8?'
p667
tp668
Rp669
aa(lp670
g28
(g32
S'2\x19\xe3\x931\xa1\xe7?'
p671
tp672
Rp673
aasg114
(lp674
(lp675
g28
(g32
S'\xf6z\x8f\xbd\xbaK\x8c?'
p676
tp677
Rp678
aag675
a(lp679
g28
(g32
S'\xf2A\xec,f$\xaa?'
p680
tp681
Rp682
aa(lp683
g28
(g32
S'nj\xc7\x85G/\x9a?'
p684
tp685
Rp686
aa(lp687
g28
(g32
S'\x00\xcc\x8a\xcf\xcaQ\xbf?'
p688
tp689
Rp690
aa(lp691
g28
(g32
S'D\xb1\xaf\x86\xef\x87\xc9?'
p692
tp693
Rp694
aa(lp695
g28
(g32
S'\xe6\xcf\xb3\xd2\xad\x13\xcb?'
p696
tp697
Rp698
aa(lp699
g28
(g32
S'\xde\x1b\xe39\xd9\x8c\xc4?'
p700
tp701
Rp702
aa(lp703
g28
(g32
S'\x07(\xf5\xeea\xc8\xc8?'
p704
tp705
Rp706
aa(lp707
g28
(g32
S':(J\xdd\xd2\x0e\xc1?'
p708
tp709
Rp710
aa(lp711
g28
(g32
S'>\xben\xc6x\xfb\xa4?'
p712
tp713
Rp714
aa(lp715
g28
(g32
S'M\x9d\x86t\xe8b\x90?'
p716
tp717
Rp718
aa(lp719
g28
(g32
S'o\xca\xbe\xc5\xcc*\xc0?'
p720
tp721
Rp722
aa(lp723
g28
(g32
S'\xe71z\x16\xb5:\xc7?'
p724
tp725
Rp726
aa(lp727
g28
(g32
S'\xcc|\x82p~#\x91?'
p728
tp729
Rp730
aa(lp731
g28
(g32
S'\xd47"\xbd\x96\xf3l?'
p732
tp733
Rp734
aa(lp735
g28
(g32
S'\xc6|MHg\xcb\xa4?'
p736
tp737
Rp738
aa(lp739
g28
(g32
S'\xd8j\xe4\xb5\xe4U\x93?'
p740
tp741
Rp742
aa(lp743
g28
(g32
S'\xe1ub\xdc\x10\xa1\xb5?'
p744
tp745
Rp746
aa(lp747
g28
(g32
S'IWBL\xf5\x97\x9b?'
p748
tp749
Rp750
aa(lp751
g28
(g32
S'\xb8<\xbc\xb9c\xb8\xab?'
p752
tp753
Rp754
aasg196
(lp755
F10.885657787322998
aF10.885657787322998
aF7.814108848571777
aF6.453699827194214
aF8.71304988861084
aF6.861598968505859
aF8.138701915740967
aF7.140279054641724
aF6.876434087753296
aF8.811651945114136
aF5.704322099685669
aF8.512372016906738
aF6.606433153152466
aF10.395986795425415
aF7.718888998031616
aF7.217931032180786
aF8.128882884979248
aF7.590459108352661
aF9.187340021133423
aF8.622852802276611
aF7.298823118209839
assS'M4'
p756
(dp757
g3
(lp758
(lp759
I51
aag759
a(lp760
I51
aa(lp761
I51
aa(lp762
I52
aa(lp763
I53
aa(lp764
I53
aa(lp765
I55
aa(lp766
I51
aa(lp767
I51
aa(lp768
I51
aa(lp769
I51
aa(lp770
I52
aa(lp771
I53
aa(lp772
I54
aa(lp773
I52
aa(lp774
I54
aa(lp775
I52
aa(lp776
I54
aa(lp777
I51
aa(lp778
I51
aasg25
(lp779
(lp780
g28
(g32
S'?\xef\xfc\xe3\xdfx\x96?'
p781
tp782
Rp783
aag780
a(lp784
g28
(g32
S'\xa9S\xdb\x1dL\x85\xa1?'
p785
tp786
Rp787
aa(lp788
g28
(g32
S'\x0fA\xb6-m?\x92?'
p789
tp790
Rp791
aa(lp792
g28
(g32
S'\r\xd7\xec\xc8\xc1^\x93?'
p793
tp794
Rp795
aa(lp796
g28
(g32
S'X\xa0x\xa5\x1fr\x9b?'
p797
tp798
Rp799
aa(lp800
g28
(g32
S'~\x8b\xa3\\\xf8s\x95?'
p801
tp802
Rp803
aa(lp804
g28
(g32
S'v*t\xda\xe8G\x97?'
p805
tp806
Rp807
aa(lp808
g28
(g32
S'\x0ckF\x9b\x19\x80\x93?'
p809
tp810
Rp811
aa(lp812
g28
(g32
S'\xf0\xe5%\xbd\\\xd4\x8b?'
p813
tp814
Rp815
aa(lp816
g28
(g32
S'\x1dFK1\xa6\x8c\x93?'
p817
tp818
Rp819
aa(lp820
g28
(g32
S'M\xb2\xd1\x1d\xc4s\x89?'
p821
tp822
Rp823
aa(lp824
g28
(g32
S'\xb65\x02\xdb"3\x92?'
p825
tp826
Rp827
aa(lp828
g28
(g32
S'V3\xa0v\x83;\x94?'
p829
tp830
Rp831
aa(lp832
g28
(g32
S'!\xa9\xd7$\xb8W\x96?'
p833
tp834
Rp835
aa(lp836
g28
(g32
S'\xf9\xb7(@\xe2\xce\xa5?'
p837
tp838
Rp839
aa(lp840
g28
(g32
S'o\xcc\xeb\xdf\xfdk\x8e?'
p841
tp842
Rp843
aa(lp844
g28
(g32
S'\xa3\x00\xec\x91\xe7\xd3\x90?'
p845
tp846
Rp847
aa(lp848
g28
(g32
S'\xa9\xe1\xf7\x86OC\x93?'
p849
tp850
Rp851
aa(lp852
g28
(g32
S'\xb7\xff\xb0\x95`\n\x92?'
p853
tp854
Rp855
aa(lp856
g28
(g32
S'\xca\xd5\xac\xc8|\xcd\x9f?'
p857
tp858
Rp859
aasg114
(lp860
(lp861
g28
(g32
S'}\x1b\x89\x00\x9d\xd7h?'
p862
tp863
Rp864
aag861
a(lp865
g28
(g32
S'\xe3\x032H\xd6\xb1j?'
p866
tp867
Rp868
aa(lp869
g28
(g32
S'\x9ej\xd1\x8cP\xb4n?'
p870
tp871
Rp872
aa(lp873
g28
(g32
S'\x85\xf0\xa40s?q?'
p874
tp875
Rp876
aa(lp877
g28
(g32
S'\x11\x14\xb1i\x9b\xbep?'
p878
tp879
Rp880
aa(lp881
g28
(g32
S'}q\xa4\xd3\xab\xaey?'
p882
tp883
Rp884
aa(lp885
g28
(g32
S'\x7fX\x1d0^\xd4s?'
p886
tp887
Rp888
aa(lp889
g28
(g32
S'[\x10i\x14\x13\xc9v?'
p890
tp891
Rp892
aa(lp893
g28
(g32
S'\xc5sXl\x0b\x98u?'
p894
tp895
Rp896
aa(lp897
g28
(g32
S'\xc7<\x1fE\xb3to?'
p898
tp899
Rp900
aa(lp901
g28
(g32
S'\xc8R\xe9\xd1pqo?'
p902
tp903
Rp904
aa(lp905
g28
(g32
S'P\xbf_^\xdaWv?'
p906
tp907
Rp908
aa(lp909
g28
(g32
S'\x88(u*\xf9zm?'
p910
tp911
Rp912
aa(lp913
g28
(g32
S'\x1c\x10@j\x0f@s?'
p914
tp915
Rp916
aa(lp917
g28
(g32
S'] e\x0e\x1dEv?'
p918
tp919
Rp920
aa(lp921
g28
(g32
S'&S\xfc >\xe6y?'
p922
tp923
Rp924
aa(lp925
g28
(g32
S'BH\xe3\xd6kHv?'
p926
tp927
Rp928
aa(lp929
g28
(g32
S'\x0e\x98\x12\xa94\x1em?'
p930
tp931
Rp932
aa(lp933
g28
(g32
S'\xae\r.g\xdf\xfaw?'
p934
tp935
Rp936
aa(lp937
g28
(g32
S'!Q\xf2\xa5\xcc-y?'
p938
tp939
Rp940
aasg196
(lp941
F18.12067699432373
aF18.12067699432373
aF16.888455867767334
aF21.367942094802856
aF18.621762990951538
aF19.0533549785614
aF21.707356929779053
aF17.880824089050293
aF19.141669988632202
aF18.931204080581665
aF16.931797981262207
aF19.959447145462036
aF20.363851070404053
aF17.9962739944458
aF20.01493000984192
aF21.385123014450073
aF19.184701919555664
aF21.057138919830322
aF19.80662488937378
aF21.158049821853638
aF18.539017915725708
assS'M1'
p942
(dp943
g3
(lp944
(lp945
I51
aag945
a(lp946
I52
aa(lp947
I52
aa(lp948
I53
aa(lp949
I51
aa(lp950
I52
aa(lp951
I52
aa(lp952
I53
aa(lp953
I52
aa(lp954
I52
aa(lp955
I51
aa(lp956
I51
aa(lp957
I51
aa(lp958
I52
aa(lp959
I52
aa(lp960
I52
aa(lp961
I55
aa(lp962
I52
aa(lp963
I52
aa(lp964
I51
aasg25
(lp965
(lp966
g28
(g32
S'F\xa6\xd4\xad\x15\xd8\x9e?'
p967
tp968
Rp969
aag966
a(lp970
g28
(g32
S'\x9f\xae\xef>\x8fO\x9a?'
p971
tp972
Rp973
aa(lp974
g28
(g32
S'\xa8\xc1\xcd\xf5za\x95?'
p975
tp976
Rp977
aa(lp978
g28
(g32
S'\x16\xe8u\x8e\xe6c\x9b?'
p979
tp980
Rp981
aa(lp982
g28
(g32
S'\x9f\xc0\xcf\xa4e\x07\x8a?'
p983
tp984
Rp985
aa(lp986
g28
(g32
S'gXM\xee\xdd\xdf\x95?'
p987
tp988
Rp989
aa(lp990
g28
(g32
S'r\xcd\xdf|\x16\xee\x98?'
p991
tp992
Rp993
aa(lp994
g28
(g32
S'/\x80?\x01\x91\x80\xa0?'
p995
tp996
Rp997
aa(lp998
g28
(g32
S'\x9f\\V?\xbeq\x94?'
p999
tp1000
Rp1001
aa(lp1002
g28
(g32
S's\xb3\x99\xc0\xe6_\x9b?'
p1003
tp1004
Rp1005
aa(lp1006
g28
(g32
S"\xa2\xf1\x01'\x99m\x95?"
p1007
tp1008
Rp1009
aa(lp1010
g28
(g32
S'\x14\xfd\xe3\xa2\x91\x7f\x91?'
p1011
tp1012
Rp1013
aa(lp1014
g28
(g32
S"\x1cG\x82'\x1f\xa5\x99?"
p1015
tp1016
Rp1017
aa(lp1018
g28
(g32
S'\xeb\xcci\xf5\\\xa4\x97?'
p1019
tp1020
Rp1021
aa(lp1022
g28
(g32
S'\x06\x83D\x99\xa4\x19\x90?'
p1023
tp1024
Rp1025
aa(lp1026
g28
(g32
S'\n\x9d<^y\x82\x93?'
p1027
tp1028
Rp1029
aa(lp1030
g28
(g32
S'T\x1d)8\x02X\x92?'
p1031
tp1032
Rp1033
aa(lp1034
g28
(g32
S'\x8a\x7fl\xf3\xb0\x08\x9c?'
p1035
tp1036
Rp1037
aa(lp1038
g28
(g32
S'A\xe2\xdf\xf2\x1b/\x93?'
p1039
tp1040
Rp1041
aa(lp1042
g28
(g32
S'4\xdf\x14\xa6\x85\xa4\x97?'
p1043
tp1044
Rp1045
aasg114
(lp1046
(lp1047
g28
(g32
S'\\\xbe\xf6[\xc1T|?'
p1048
tp1049
Rp1050
aag1047
a(lp1051
g28
(g32
S'\xd83J\xb9\x11s\x7f?'
p1052
tp1053
Rp1054
aa(lp1055
g28
(g32
S'Bj\x05j\xe5\xad\x84?'
p1056
tp1057
Rp1058
aa(lp1059
g28
(g32
S'\xc4\xb7\x0cKu\x1f\x82?'
p1060
tp1061
Rp1062
aa(lp1063
g28
(g32
S'\x0f\x7f\x11\x82\xd2Z{?'
p1064
tp1065
Rp1066
aa(lp1067
g28
(g32
S'[\xd8\x14cb\x06\x82?'
p1068
tp1069
Rp1070
aa(lp1071
g28
(g32
S't~:g\x9e}\x80?'
p1072
tp1073
Rp1074
aa(lp1075
g28
(g32
S'\xce\xe0\xfe\xe1\x1e\x93\x84?'
p1076
tp1077
Rp1078
aa(lp1079
g28
(g32
S'\x0c\x06X\x108T\x84?'
p1080
tp1081
Rp1082
aa(lp1083
g28
(g32
S'4F\x9au\xdf\xba}?'
p1084
tp1085
Rp1086
aa(lp1087
g28
(g32
S'\x98a+-\xedr\x81?'
p1088
tp1089
Rp1090
aa(lp1091
g28
(g32
S'\xf8\xa5X\xacPE\x87?'
p1092
tp1093
Rp1094
aa(lp1095
g28
(g32
S'\xb8\xc1\xc7\x1e\xa0\xe9\x83?'
p1096
tp1097
Rp1098
aa(lp1099
g28
(g32
S'?v2\xf9\xf5\xf1\x85?'
p1100
tp1101
Rp1102
aa(lp1103
g28
(g32
S'\xfb\x11\xa0\x12\xf54|?'
p1104
tp1105
Rp1106
aa(lp1107
g28
(g32
S'~\xd1O\xf4\x11\xa2\x7f?'
p1108
tp1109
Rp1110
aa(lp1111
g28
(g32
S'\xd7\xf2\xb0\xea\x8c\x8f~?'
p1112
tp1113
Rp1114
aa(lp1115
g28
(g32
S'\xcf\xd2\xb4^\tS{?'
p1116
tp1117
Rp1118
aa(lp1119
g28
(g32
S'4\xf5Y\xf4p\xe5\x82?'
p1120
tp1121
Rp1122
aa(lp1123
g28
(g32
S'\x13q\xc7\xbfo<\x84?'
p1124
tp1125
Rp1126
aasg196
(lp1127
F22.22098398208618
aF22.22098398208618
aF25.272447109222412
aF26.030306100845337
aF20.471590995788574
aF19.807041883468628
aF21.319950103759766
aF20.765293836593628
aF21.247143030166626
aF21.17461585998535
aF14.80038595199585
aF19.40405797958374
aF18.391873121261597
aF24.171940803527832
aF25.290164947509766
aF27.481087923049927
aF29.182889938354492
aF31.70113706588745
aF32.82728409767151
aF29.797075033187866
aF29.257272005081177
assS'M3'
p1128
(dp1129
g3
(lp1130
(lp1131
I51
aag1131
a(lp1132
I53
aa(lp1133
I51
aa(lp1134
I52
aa(lp1135
I51
aa(lp1136
I55
aa(lp1137
I55
aa(lp1138
I55
aa(lp1139
I53
aa(lp1140
I54
aa(lp1141
I51
aa(lp1142
I51
aa(lp1143
I52
aa(lp1144
I51
aa(lp1145
I54
aa(lp1146
I51
aa(lp1147
I51
aa(lp1148
I53
aa(lp1149
I51
aa(lp1150
I53
aasg25
(lp1151
(lp1152
g28
(g32
S'\xd4\x91\x87\x82\x0e\xf9\x96?'
p1153
tp1154
Rp1155
aag1152
a(lp1156
g28
(g32
S'\x8e\xf2Ee\x83L\x9c?'
p1157
tp1158
Rp1159
aa(lp1160
g28
(g32
S't|\x1b\x91\x14\x89\x86?'
p1161
tp1162
Rp1163
aa(lp1164
g28
(g32
S'eUyY\xfa\xb8\x8d?'
p1165
tp1166
Rp1167
aa(lp1168
g28
(g32
S'\x81g\xd3\xe1\xdf\x15\xa3?'
p1169
tp1170
Rp1171
aa(lp1172
g28
(g32
S'y,\xf2\\\xdf:\x97?'
p1173
tp1174
Rp1175
aa(lp1176
g28
(g32
S'\xf52Z\x99\x83\x99\x9a?'
p1177
tp1178
Rp1179
aa(lp1180
g28
(g32
S'j`\x12^\xf8\x01\xaa?'
p1181
tp1182
Rp1183
aa(lp1184
g28
(g32
S'a\xce\xc5\x98\xd8k\x9c?'
p1185
tp1186
Rp1187
aa(lp1188
g28
(g32
S'\xe0\x10)\xa4&-\x90?'
p1189
tp1190
Rp1191
aa(lp1192
g28
(g32
S'\xb5b\xa0\xd4q\xd6\x8e?'
p1193
tp1194
Rp1195
aa(lp1196
g28
(g32
S'\x86\x02\x94\x0f\x98\x8c\x86?'
p1197
tp1198
Rp1199
aa(lp1200
g28
(g32
S'\xbez\x0fj\xc5 \x8e?'
p1201
tp1202
Rp1203
aa(lp1204
g28
(g32
S'\xf0\xc8\x1f\xef\xbd[\x96?'
p1205
tp1206
Rp1207
aa(lp1208
g28
(g32
S'\xaf\xd8"\xcd<\x81\x8a?'
p1209
tp1210
Rp1211
aa(lp1212
g28
(g32
S'\x8f\xc4\x87e\x97\xa1\x91?'
p1213
tp1214
Rp1215
aa(lp1216
g28
(g32
S'h\x1c{\xcfF\x8d\x97?'
p1217
tp1218
Rp1219
aa(lp1220
g28
(g32
S'\xa2\xfd\x1cXQ3\x8b?'
p1221
tp1222
Rp1223
aa(lp1224
g28
(g32
S'\xe9/\xaf\x99\xf0\xc7\x97?'
p1225
tp1226
Rp1227
aa(lp1228
g28
(g32
S'\x80\xdf\x06\xb9\xc7I\x96?'
p1229
tp1230
Rp1231
aasg114
(lp1232
(lp1233
g28
(g32
S'\x03\x8c1\x9a\x0e<\x81?'
p1234
tp1235
Rp1236
aag1233
a(lp1237
g28
(g32
S'\xc1\xf5\x03\xb7\xb75t?'
p1238
tp1239
Rp1240
aa(lp1241
g28
(g32
S'D\x94\x92\xe0\xb1\x83s?'
p1242
tp1243
Rp1244
aa(lp1245
g28
(g32
S'\x1d\xb6%3\xd2\xa9y?'
p1246
tp1247
Rp1248
aa(lp1249
g28
(g32
S'j\x03\xf0\x9b7\x02~?'
p1250
tp1251
Rp1252
aa(lp1253
g28
(g32
S'\xa5#VQ1\x1f\x80?'
p1254
tp1255
Rp1256
aa(lp1257
g28
(g32
S'}#=\x04\xca\xeb\x82?'
p1258
tp1259
Rp1260
aa(lp1261
g28
(g32
S'n\xf2\xdb\x9a\xd8\xa3m?'
p1262
tp1263
Rp1264
aa(lp1265
g28
(g32
S'L\xc0|/;\xc8{?'
p1266
tp1267
Rp1268
aa(lp1269
g28
(g32
S'R\xe3$V\x05d|?'
p1270
tp1271
Rp1272
aa(lp1273
g28
(g32
S'\x98\xf0&\x0bKa}?'
p1274
tp1275
Rp1276
aa(lp1277
g28
(g32
S'@\x7f\xd6-M\xc9n?'
p1278
tp1279
Rp1280
aa(lp1281
g28
(g32
S'I~\x04E\xdazs?'
p1282
tp1283
Rp1284
aa(lp1285
g28
(g32
S'\xea\xf2\x83\xe3\xec\x83q?'
p1286
tp1287
Rp1288
aa(lp1289
g28
(g32
S'\xd1\xdd\xcaZ\xf6\x85\x80?'
p1290
tp1291
Rp1292
aa(lp1293
g28
(g32
S'\xd0\xe7s?\xca\xa8v?'
p1294
tp1295
Rp1296
aa(lp1297
g28
(g32
S'x\xea\x9e~3Gx?'
p1298
tp1299
Rp1300
aa(lp1301
g28
(g32
S'\xf2\x05\x1d\xfe\xbcj\x80?'
p1302
tp1303
Rp1304
aa(lp1305
g28
(g32
S'\x9b!\xc3\x9c\xf8\x8ew?'
p1306
tp1307
Rp1308
aa(lp1309
g28
(g32
S'\xa3\xf2:B\x02Qx?'
p1310
tp1311
Rp1312
aasg196
(lp1313
F21.14273190498352
aF21.14273190498352
aF21.53185486793518
aF20.495410919189453
aF20.15942096710205
aF20.118878841400146
aF21.958641052246094
aF20.908581972122192
aF22.578988075256348
aF20.95808696746826
aF20.395793199539185
aF21.42141103744507
aF22.273261070251465
aF23.31614899635315
aF20.622236013412476
aF21.687767028808594
aF20.03215479850769
aF22.790926933288574
aF22.452799797058105
aF21.503321170806885
aF21.229109048843384
assS'M2'
p1314
(dp1315
g3
(lp1316
(lp1317
I52
aag1317
a(lp1318
I55
aa(lp1319
I53
aa(lp1320
I53
aa(lp1321
I53
aa(lp1322
I53
aa(lp1323
I52
aa(lp1324
I53
aa(lp1325
I51
aa(lp1326
I53
aa(lp1327
I54
aa(lp1328
I52
aa(lp1329
I53
aa(lp1330
I51
aa(lp1331
I51
aa(lp1332
I53
aa(lp1333
I51
aa(lp1334
I51
aa(lp1335
I53
aa(lp1336
I53
aasg25
(lp1337
(lp1338
g28
(g32
S'\x82\xc2\xa2\xaf\\4\x89?'
p1339
tp1340
Rp1341
aag1338
a(lp1342
g28
(g32
S'\xca\xe48[%H\x86?'
p1343
tp1344
Rp1345
aa(lp1346
g28
(g32
S'\xec\xd3\x02\xe8\x1f\x18\x87?'
p1347
tp1348
Rp1349
aa(lp1350
g28
(g32
S'\x9e\xf2\x12\xc8\x0f\xa8\x91?'
p1351
tp1352
Rp1353
aa(lp1354
g28
(g32
S'\x93/\xb5\xb5H\x0f\x8a?'
p1355
tp1356
Rp1357
aa(lp1358
g28
(g32
S'\xe5\xbb\xbd\xd0\x8d\xbd\x83?'
p1359
tp1360
Rp1361
aa(lp1362
g28
(g32
S'$\x1c"\x7f\x8e\x8f\x8d?'
p1363
tp1364
Rp1365
aa(lp1366
g28
(g32
S'\xa3\xafK\xd2D\xc0\x94?'
p1367
tp1368
Rp1369
aa(lp1370
g28
(g32
S'4]e\xa3:Y\x88?'
p1371
tp1372
Rp1373
aa(lp1374
g28
(g32
S'q,\xcfK\x1b\x8c\x95?'
p1375
tp1376
Rp1377
aa(lp1378
g28
(g32
S'\xed.\xed\x9a\xa5\xba\x85?'
p1379
tp1380
Rp1381
aa(lp1382
g28
(g32
S'\xdb\x89\xa4Xv\x9f\x81?'
p1383
tp1384
Rp1385
aa(lp1386
g28
(g32
S'\xe6KImZ\xcf\x81?'
p1387
tp1388
Rp1389
aa(lp1390
g28
(g32
S'\xecc\x9b\xd8\xb6J\x95?'
p1391
tp1392
Rp1393
aa(lp1394
g28
(g32
S'I=\x1c\xdd\xf9-\x8b?'
p1395
tp1396
Rp1397
aa(lp1398
g28
(g32
S'6-\xe5ST\xe5\x8f?'
p1399
tp1400
Rp1401
aa(lp1402
g28
(g32
S'D}\xabh\x1bL\x85?'
p1403
tp1404
Rp1405
aa(lp1406
g28
(g32
S'H\x17\x18h\x1e\x98\x95?'
p1407
tp1408
Rp1409
aa(lp1410
g28
(g32
S'\xe9q\x81\x80P\xff\x91?'
p1411
tp1412
Rp1413
aa(lp1414
g28
(g32
S'9\xe5\x91\xb4\xc7p\x8d?'
p1415
tp1416
Rp1417
aasg114
(lp1418
(lp1419
g28
(g32
S'o\x81\x87ww\x84{?'
p1420
tp1421
Rp1422
aag1419
a(lp1423
g28
(g32
S'\xd3\x84-\xf8\xa6\x86\x84?'
p1424
tp1425
Rp1426
aa(lp1427
g28
(g32
S'd\r j~\xbav?'
p1428
tp1429
Rp1430
aa(lp1431
g28
(g32
S'+-\x91\x86\xa7\x8d\x7f?'
p1432
tp1433
Rp1434
aa(lp1435
g28
(g32
S'i\x8aH^\xf7mu?'
p1436
tp1437
Rp1438
aa(lp1439
g28
(g32
S'Ro\xf9\x13,\x16\x81?'
p1440
tp1441
Rp1442
aa(lp1443
g28
(g32
S'\xa0Y\xc4\xa8I\xb2p?'
p1444
tp1445
Rp1446
aa(lp1447
g28
(g32
S'\xbb\x15\xd6\xf8\xe3\xe6e?'
p1448
tp1449
Rp1450
aa(lp1451
g28
(g32
S'\x82\xe4/\xcf\x9dXz?'
p1452
tp1453
Rp1454
aa(lp1455
g28
(g32
S'\\\x05\x07o\xa1Vx?'
p1456
tp1457
Rp1458
aa(lp1459
g28
(g32
S'\xed=\x86n\x14\x8f|?'
p1460
tp1461
Rp1462
aa(lp1463
g28
(g32
S'\xd1\xfeZ(^\xbcs?'
p1464
tp1465
Rp1466
aa(lp1467
g28
(g32
S'\xbb\x1bo|\x15\xe2j?'
p1468
tp1469
Rp1470
aa(lp1471
g28
(g32
S'\x02\x7f`\x919\xdbs?'
p1472
tp1473
Rp1474
aa(lp1475
g28
(g32
S'\x81\xb7\xa3\xdc>"r?'
p1476
tp1477
Rp1478
aa(lp1479
g28
(g32
S'Ki\xfa\xa5\xc2\xea\x7f?'
p1480
tp1481
Rp1482
aa(lp1483
g28
(g32
S'\xa4\x8c\xe9L\x91\x8cx?'
p1484
tp1485
Rp1486
aa(lp1487
g28
(g32
S'\x1bb\xe3Z\xa7dm?'
p1488
tp1489
Rp1490
aa(lp1491
g28
(g32
S'Z4\xbc*@\xcf\x7f?'
p1492
tp1493
Rp1494
aa(lp1495
g28
(g32
S'X\x80O\xbe\xc0\x9f\x81?'
p1496
tp1497
Rp1498
aasg196
(lp1499
F19.120436906814575
aF19.120436906814575
aF19.30694007873535
aF18.2548348903656
aF20.290473222732544
aF19.842748880386353
aF18.267547130584717
aF22.541637897491455
aF19.718598127365112
aF18.382813930511475
aF20.85695195198059
aF19.89005208015442
aF18.081820964813232
aF18.748655080795288
aF19.270437955856323
aF18.859360933303833
aF16.717689037322998
aF18.830265998840332
aF16.66184401512146
aF20.722130060195923
aF20.49862504005432
assS'X2'
p1500
(dp1501
g3
(lp1502
(lp1503
I53
aag1503
a(lp1504
I52
aa(lp1505
I52
aa(lp1506
I51
aa(lp1507
I51
aa(lp1508
I56
aa(lp1509
I51
aa(lp1510
I51
aa(lp1511
I54
aa(lp1512
I54
aa(lp1513
I51
aa(lp1514
I55
aa(lp1515
I52
aa(lp1516
I53
aa(lp1517
I55
aa(lp1518
I53
aa(lp1519
I51
aa(lp1520
I51
aa(lp1521
I51
aa(lp1522
I51
aasg25
(lp1523
(lp1524
g28
(g32
S'\x10F\xd9.\xa7\x89\x8c?'
p1525
tp1526
Rp1527
aag1524
a(lp1528
g28
(g32
S'\xba\xc2\x89UR|\x8c?'
p1529
tp1530
Rp1531
aa(lp1532
g28
(g32
S'\x11\x98\xfa\xe8\x8dx\x97?'
p1533
tp1534
Rp1535
aa(lp1536
g28
(g32
S'\x8b\xb5\xe4j\x04?\x8a?'
p1537
tp1538
Rp1539
aa(lp1540
g28
(g32
S'z\x11\xc1@\x1a\xfb\x86?'
p1541
tp1542
Rp1543
aa(lp1544
g28
(g32
S'\x1c\xaf\x12\xceS5\x99?'
p1545
tp1546
Rp1547
aa(lp1548
g28
(g32
S'\x08A\xf6\x8fE`\x85?'
p1549
tp1550
Rp1551
aa(lp1552
g28
(g32
S'\x99\xf8\xe2\xad\xdf\xc9\x85?'
p1553
tp1554
Rp1555
aa(lp1556
g28
(g32
S'\xdb\x8a\x91\xb61\xff\x8d?'
p1557
tp1558
Rp1559
aa(lp1560
g28
(g32
S'\xa7\xfa\xe6\x8eo\xf1\x92?'
p1561
tp1562
Rp1563
aa(lp1564
g28
(g32
S'\xf0`\x0c\xec\xf7e\x94?'
p1565
tp1566
Rp1567
aa(lp1568
g28
(g32
S'v\xf8\x93\x0bz\xd9}?'
p1569
tp1570
Rp1571
aa(lp1572
g28
(g32
S'\xde\xd0\x18\x84\r\x05\x8d?'
p1573
tp1574
Rp1575
aa(lp1576
g28
(g32
S'\xec|-\x1f\xab\xcc\x90?'
p1577
tp1578
Rp1579
aa(lp1580
g28
(g32
S'\x0e\xb9\x87|\x9d\xde\x9e?'
p1581
tp1582
Rp1583
aa(lp1584
g28
(g32
S'\x8e\x8c\xe7\xe8\x91\xcc\x89?'
p1585
tp1586
Rp1587
aa(lp1588
g28
(g32
S'r\xf7\x7f\xe0\x9d \x8a?'
p1589
tp1590
Rp1591
aa(lp1592
g28
(g32
S'\x90\x94\x14\x19h>\x8c?'
p1593
tp1594
Rp1595
aa(lp1596
g28
(g32
S'j\xab#07\x81\xa0?'
p1597
tp1598
Rp1599
aa(lp1600
g28
(g32
S'\x82^\x8afq\xdb\x99?'
p1601
tp1602
Rp1603
aasg114
(lp1604
(lp1605
g28
(g32
S'\xb5_\x92c$P\x85?'
p1606
tp1607
Rp1608
aag1605
a(lp1609
g28
(g32
S'\x90y\x8aG\x88\x05\xa4?'
p1610
tp1611
Rp1612
aa(lp1613
g28
(g32
S'\xaa\x12\x9d\x86\xae\x88\x95?'
p1614
tp1615
Rp1616
aa(lp1617
g28
(g32
S'0C\n\xd8\x8e\x81\x91?'
p1618
tp1619
Rp1620
aa(lp1621
g28
(g32
S'\x03\xdbd\xe3J|\xa1?'
p1622
tp1623
Rp1624
aa(lp1625
g28
(g32
S'\x08\x95\xfa.\xa3T\xa5?'
p1626
tp1627
Rp1628
aa(lp1629
g28
(g32
S'\x04\x8dO)U|\xaf?'
p1630
tp1631
Rp1632
aa(lp1633
g28
(g32
S'\xf7y\x0e\xb9kG\xa0?'
p1634
tp1635
Rp1636
aa(lp1637
g28
(g32
S'\x8ag\x85\x0f\x98\x7f\xb0?'
p1638
tp1639
Rp1640
aa(lp1641
g28
(g32
S'\xd6\xf0!^3\xab\x91?'
p1642
tp1643
Rp1644
aa(lp1645
g28
(g32
S'u\xf8\xc5\xdc\xd5\xa2\xad?'
p1646
tp1647
Rp1648
aa(lp1649
g28
(g32
S'\xe0)\xa4\xf7*\x84\xb6?'
p1650
tp1651
Rp1652
aa(lp1653
g28
(g32
S'\xa6S)\x97\xad\xd9\xa9?'
p1654
tp1655
Rp1656
aa(lp1657
g28
(g32
S'\x96\xa3D\x81\xcd\x17\xad?'
p1658
tp1659
Rp1660
aa(lp1661
g28
(g32
S'Y\x96)qK\xc4\xa7?'
p1662
tp1663
Rp1664
aa(lp1665
g28
(g32
S'\x00\x17_\xf4\x0c7\xa1?'
p1666
tp1667
Rp1668
aa(lp1669
g28
(g32
S'\x80RQ\xa3\x81v\x8d?'
p1670
tp1671
Rp1672
aa(lp1673
g28
(g32
S'.\xab9g\\\x9b\x93?'
p1674
tp1675
Rp1676
aa(lp1677
g28
(g32
S'\x80^\xb9\xcfQ\x9f\x92?'
p1678
tp1679
Rp1680
aa(lp1681
g28
(g32
S'\xa2\x97^\xdfw\xdc\xa8?'
p1682
tp1683
Rp1684
aasg196
(lp1685
F8.714632034301758
aF8.714632034301758
aF9.438276052474976
aF6.652261018753052
aF9.697772026062012
aF7.345335006713867
aF7.117158889770508
aF6.335952043533325
aF7.918015956878662
aF8.335978984832764
aF7.8916730880737305
aF7.158349990844727
aF8.552565097808838
aF6.891072034835815
aF9.815181970596313
aF7.2888078689575195
aF6.946882009506226
aF7.68020486831665
aF6.8805389404296875
aF7.313117980957031
aF7.926470994949341
assS'X3'
p1686
(dp1687
g3
(lp1688
(lp1689
I51
aag1689
a(lp1690
I55
aa(lp1691
I53
aa(lp1692
I52
aa(lp1693
I57
aa(lp1694
I53
aa(lp1695
I51
aa(lp1696
I53
aa(lp1697
I51
aa(lp1698
I51
aa(lp1699
I54
aa(lp1700
I51
aa(lp1701
I52
aa(lp1702
I51
aa(lp1703
I51
aa(lp1704
I51
aa(lp1705
I54
aa(lp1706
I53
aa(lp1707
I54
aa(lp1708
I51
aasg25
(lp1709
(lp1710
g28
(g32
S'i\xfb\xc3\xc2\xa9\xd5\x7f?'
p1711
tp1712
Rp1713
aag1710
a(lp1714
g28
(g32
S'\xcf4o9^>\x8b?'
p1715
tp1716
Rp1717
aa(lp1718
g28
(g32
S'\x1c\x17\xdf\x9f\xc3\xf7\x82?'
p1719
tp1720
Rp1721
aa(lp1722
g28
(g32
S'\x01\xee\x1cT\x82\x9dd?'
p1723
tp1724
Rp1725
aa(lp1726
g28
(g32
S'\xb8\xf6\xe3\xc0,;\x84?'
p1727
tp1728
Rp1729
aa(lp1730
g28
(g32
S't\x12\r\x8d\x87\x8f\x83?'
p1731
tp1732
Rp1733
aa(lp1734
g28
(g32
S'O\xcas\xb6\xc2\xf5i?'
p1735
tp1736
Rp1737
aa(lp1738
g28
(g32
S'\xfdhJ\xa8\x00O\x90?'
p1739
tp1740
Rp1741
aa(lp1742
g28
(g32
S't\x10rc\x9c\x85\x88?'
p1743
tp1744
Rp1745
aa(lp1746
g28
(g32
S'\xef;\xcaht\xd4\x85?'
p1747
tp1748
Rp1749
aa(lp1750
g28
(g32
S'\xca\xda\r\xf2\xc2\x1c\x8d?'
p1751
tp1752
Rp1753
aa(lp1754
g28
(g32
S'\xcd\x9b6\xd6\xfc^|?'
p1755
tp1756
Rp1757
aa(lp1758
g28
(g32
S'M\x00\xe9X\x0fo\x8b?'
p1759
tp1760
Rp1761
aa(lp1762
g28
(g32
S'\x97\xadH\xdb\x1c\r~?'
p1763
tp1764
Rp1765
aa(lp1766
g28
(g32
S'\xe4\xb4z\xb1c\xea\x92?'
p1767
tp1768
Rp1769
aa(lp1770
g28
(g32
S'\x07\xb9\x13\x10-\x15\x91?'
p1771
tp1772
Rp1773
aa(lp1774
g28
(g32
S'\xee\xe7\xc5\rR>\x83?'
p1775
tp1776
Rp1777
aa(lp1778
g28
(g32
S'\xd4\xf8\x85\xe9=\x05\x80?'
p1779
tp1780
Rp1781
aa(lp1782
g28
(g32
S'\xf7\t\x0eS\x0e+~?'
p1783
tp1784
Rp1785
aa(lp1786
g28
(g32
S'\xfd\x05\xfb\xc6\xb0\xd4\x8d?'
p1787
tp1788
Rp1789
aasg114
(lp1790
(lp1791
g28
(g32
S'\x9b\xd0\xbb[:}\xa5?'
p1792
tp1793
Rp1794
aag1791
a(lp1795
g28
(g32
S'\xc2\xf3\xa20\xc4\xf8\xa0?'
p1796
tp1797
Rp1798
aa(lp1799
g28
(g32
S'\xbb\xd8,-\xae\x88`?'
p1800
tp1801
Rp1802
aa(lp1803
g28
(g32
S'\xc6h\xb1\xcb-\x88V?'
p1804
tp1805
Rp1806
aa(lp1807
g28
(g32
S'?\xfb\xba\xd7\x9e~\x83?'
p1808
tp1809
Rp1810
aa(lp1811
g28
(g32
S'\xf7\xc7\x94^\xb5\xa1\x8f?'
p1812
tp1813
Rp1814
aa(lp1815
g28
(g32
S'Z"s\x9cf\xe0\\?'
p1816
tp1817
Rp1818
aa(lp1819
g28
(g32
S'X\xbe\xb1_\xb5\x03\x91?'
p1820
tp1821
Rp1822
aa(lp1823
g28
(g32
S'_6,^\xed\x1a\xa5?'
p1824
tp1825
Rp1826
aa(lp1827
g28
(g32
S'%\x88k\xbe\x1c\xe7\x8f?'
p1828
tp1829
Rp1830
aa(lp1831
g28
(g32
S'm\x96u&\x11v\x84?'
p1832
tp1833
Rp1834
aa(lp1835
g28
(g32
S'<\x1d\xd04L\xf7Y?'
p1836
tp1837
Rp1838
aa(lp1839
g28
(g32
S'\xf6\x14\xe1\xb7b-\x84?'
p1840
tp1841
Rp1842
aa(lp1843
g28
(g32
S"'\x8e\xb9J\xb8\x95\x9b?"
p1844
tp1845
Rp1846
aa(lp1847
g28
(g32
S'\x00\x00\x00\x00\x00\x00\x00\x00'
p1848
tp1849
Rp1850
aa(lp1851
g28
(g32
S'\xca\x90\xb5N\xcbW\x91?'
p1852
tp1853
Rp1854
aa(lp1855
g28
(g32
S'\xfb\x91\xf1\x041\x04\x8a?'
p1856
tp1857
Rp1858
aa(lp1859
g28
(g32
S'Z\xb8\x01\xfe\xd0\xf3a?'
p1860
tp1861
Rp1862
aa(lp1863
g28
(g32
S'\xe9\x16\x97l\x01v\x9d?'
p1864
tp1865
Rp1866
aa(lp1867
g28
(g32
S'"\xfe\xde\xa2h\x18\xc0?'
p1868
tp1869
Rp1870
aasg196
(lp1871
F7.025593996047974
aF7.025593996047974
aF8.499675989151001
aF8.443835973739624
aF9.482275009155273
aF7.259199857711792
aF7.3160810470581055
aF7.2012939453125
aF9.2711501121521
aF5.596333026885986
aF7.682605028152466
aF8.847272872924805
aF9.787073850631714
aF11.524266958236694
aF9.443858861923218
aF8.422614812850952
aF9.668147802352905
aF10.181729078292847
aF6.669189929962158
aF7.44724702835083
aF8.646832942962646
assS'X1'
p1872
(dp1873
g3
(lp1874
(lp1875
I56
aag1875
a(lp1876
I57
aa(lp1877
I55
aa(lp1878
I53
aa(lp1879
I54
aa(lp1880
I52
aa(lp1881
I54
aa(lp1882
I51
aa(lp1883
I52
aa(lp1884
I54
aa(lp1885
I51
aa(lp1886
I52
aa(lp1887
I52
aa(lp1888
I53
aa(lp1889
I54
aa(lp1890
I51
aa(lp1891
I54
aa(lp1892
I54
aa(lp1893
I55
aa(lp1894
I52
aasg25
(lp1895
(lp1896
g28
(g32
S'\xe5\xde\x94\xe4\xb3\x11\x88?'
p1897
tp1898
Rp1899
aag1896
a(lp1900
g28
(g32
S'K]\xac\xe8\xc3\xdb\x9e?'
p1901
tp1902
Rp1903
aa(lp1904
g28
(g32
S'\xcfMts\xad\xcb\x81?'
p1905
tp1906
Rp1907
aa(lp1908
g28
(g32
S'\x1f\xd0\xe9[m\xcb\x90?'
p1909
tp1910
Rp1911
aa(lp1912
g28
(g32
S'\xe4\xdd<\x98_\xf4\x95?'
p1913
tp1914
Rp1915
aa(lp1916
g28
(g32
S'\xfcw\xe3%\xb9\xed\x98?'
p1917
tp1918
Rp1919
aa(lp1920
g28
(g32
S'\x8a\x80\xc6.^\xb4t?'
p1921
tp1922
Rp1923
aa(lp1924
g28
(g32
S'\xc4\x06\x88\x1f\xdb\xf1\x8a?'
p1925
tp1926
Rp1927
aa(lp1928
g28
(g32
S's\xe3${\xf2\x03\x80?'
p1929
tp1930
Rp1931
aa(lp1932
g28
(g32
S'\x12\x1cs\xd2[\x00\x8d?'
p1933
tp1934
Rp1935
aa(lp1936
g28
(g32
S'\xed\xa6\xa1[+\xa4{?'
p1937
tp1938
Rp1939
aa(lp1940
g28
(g32
S'4\xd3\x82\xab\xf0\xf2\x82?'
p1941
tp1942
Rp1943
aa(lp1944
g28
(g32
S'\xb3)Tj\x9b\xca\x96?'
p1945
tp1946
Rp1947
aa(lp1948
g28
(g32
S')\x19$\xa6\xbb\x03\x8f?'
p1949
tp1950
Rp1951
aa(lp1952
g28
(g32
S'\x97\xcd\x0b\x96d\xec{?'
p1953
tp1954
Rp1955
aa(lp1956
g28
(g32
S'\x80\xf8,\x14\xd4\xa1o?'
p1957
tp1958
Rp1959
aa(lp1960
g28
(g32
S'\xefJ\xde\xda\x99\x04u?'
p1961
tp1962
Rp1963
aa(lp1964
g28
(g32
S'\xecv\xc8\xaf:\xfa}?'
p1965
tp1966
Rp1967
aa(lp1968
g28
(g32
S'b^S\xadX+p?'
p1969
tp1970
Rp1971
aa(lp1972
g28
(g32
S'3\xf5K\xe7\x86q\x96?'
p1973
tp1974
Rp1975
aasg114
(lp1976
(lp1977
g28
(g32
S'\x00\xb8XB:A\xb6?'
p1978
tp1979
Rp1980
aag1977
a(lp1981
g28
(g32
S'\xd4?\xdb\x8e\xc5\xe1\xab?'
p1982
tp1983
Rp1984
aa(lp1985
g28
(g32
S'\x9b\xd2\x1b\xd2\xae\x8d\x96?'
p1986
tp1987
Rp1988
aa(lp1989
g28
(g32
S"+\xb0\xa1'\xccA\x82?"
p1990
tp1991
Rp1992
aa(lp1993
g28
(g32
S'\xb8 \xf7\x1bb)\x9b?'
p1994
tp1995
Rp1996
aa(lp1997
g28
(g32
S'A\xce\\j%\xecn?'
p1998
tp1999
Rp2000
aa(lp2001
g28
(g32
S'\xdf\raI\x08\x9b\x8c?'
p2002
tp2003
Rp2004
aa(lp2005
g28
(g32
S'\xb65{L\xbeE\xa2?'
p2006
tp2007
Rp2008
aa(lp2009
g28
(g32
S'\xd1\xa6\xb5\x14+\\\xa6?'
p2010
tp2011
Rp2012
aa(lp2013
g28
(g32
S'\x0fg\x9b\xbd\xd3A\xa0?'
p2014
tp2015
Rp2016
aa(lp2017
g28
(g32
S'\xec\xe3o\xea\xb5\xd8w?'
p2018
tp2019
Rp2020
aa(lp2021
g28
(g32
S'\x13\xc3s\xdb5\xee\xb3?'
p2022
tp2023
Rp2024
aa(lp2025
g28
(g32
S'P\xec\x98\x8f\xbc\xc3\xa3?'
p2026
tp2027
Rp2028
aa(lp2029
g28
(g32
S'\xdd\xdb\xebz\xcb\xf3\x80?'
p2030
tp2031
Rp2032
aa(lp2033
g28
(g32
S'\x86\x8c\x19\x11wX\xa1?'
p2034
tp2035
Rp2036
aa(lp2037
g28
(g32
S'5c\xa0\xa2\xf5\x89\x9d?'
p2038
tp2039
Rp2040
aa(lp2041
g28
(g32
S'\x89\x01>\xaf\xf7\x04\xa2?'
p2042
tp2043
Rp2044
aa(lp2045
g28
(g32
S'\xaa\xe3z\x88\x19\x7f\xb2?'
p2046
tp2047
Rp2048
aa(lp2049
g28
(g32
S'\x8e .>ir\x99?'
p2050
tp2051
Rp2052
aa(lp2053
g28
(g32
S'\xf5\x82\x94\x03\xfa\x05\xa4?'
p2054
tp2055
Rp2056
aasg196
(lp2057
F8.359166860580444
aF8.359166860580444
aF8.193343877792358
aF5.750610113143921
aF6.627144813537598
aF12.215040922164917
aF6.698662042617798
aF6.854271173477173
aF8.059579849243164
aF6.229002952575684
aF6.846451997756958
aF8.004629850387573
aF7.072890043258667
aF8.047734022140503
aF6.103839874267578
aF7.293853044509888
aF10.297976970672607
aF8.222472906112671
aF9.172903060913086
aF8.39713191986084
aF8.911216974258423
assS'X4'
p2058
(dp2059
g3
(lp2060
(lp2061
I52
aag2061
a(lp2062
I55
aa(lp2063
I52
aa(lp2064
I51
aa(lp2065
I54
aa(lp2066
I56
aa(lp2067
I51
aa(lp2068
I51
aa(lp2069
I54
aa(lp2070
I54
aa(lp2071
I54
aa(lp2072
I53
aa(lp2073
I51
aa(lp2074
I54
aa(lp2075
I53
aa(lp2076
I53
aa(lp2077
I53
aa(lp2078
I51
aa(lp2079
I53
aa(lp2080
I52
aasg25
(lp2081
(lp2082
g28
(g32
S'\x0c\xe33\x97\x0b\xd2\x8f?'
p2083
tp2084
Rp2085
aag2082
a(lp2086
g28
(g32
S'=3\xbf\x89&e\x8e?'
p2087
tp2088
Rp2089
aa(lp2090
g28
(g32
S'H\xe6\xd8\xfb\x05\xcc\x91?'
p2091
tp2092
Rp2093
aa(lp2094
g28
(g32
S'\x12]\x89Fz/\x92?'
p2095
tp2096
Rp2097
aa(lp2098
g28
(g32
S'\xe4(\x98\x92\x15\xf9\x8f?'
p2099
tp2100
Rp2101
aa(lp2102
g28
(g32
S'\xc1\x97o\x9fV\x14\x8f?'
p2103
tp2104
Rp2105
aa(lp2106
g28
(g32
S'\xa6\x85\x04g/\x06\x96?'
p2107
tp2108
Rp2109
aa(lp2110
g28
(g32
S'\x93\xe0aG\x17z\x8e?'
p2111
tp2112
Rp2113
aa(lp2114
g28
(g32
S'\xea\x83\xab\xed\xc6K\x86?'
p2115
tp2116
Rp2117
aa(lp2118
g28
(g32
S'\xb50\xbc\xedN;\x92?'
p2119
tp2120
Rp2121
aa(lp2122
g28
(g32
S'\xb8\xf8\xac\x95C"\x87?'
p2123
tp2124
Rp2125
aa(lp2126
g28
(g32
S'\xa87\x9eV\xfd\xba\x8a?'
p2127
tp2128
Rp2129
aa(lp2130
g28
(g32
S'\x8eh\xd6\x02\x9c\x89\x9c?'
p2131
tp2132
Rp2133
aa(lp2134
g28
(g32
S'\xfe\xb7\xcb\xe8:b\x8e?'
p2135
tp2136
Rp2137
aa(lp2138
g28
(g32
S'\xb1\xab\xfe\xd1\x89 \x90?'
p2139
tp2140
Rp2141
aa(lp2142
g28
(g32
S'\xfa\xe1zq\xef\xae\x93?'
p2143
tp2144
Rp2145
aa(lp2146
g28
(g32
S'Y\xd6\xe2\xd8v\xbe\x8a?'
p2147
tp2148
Rp2149
aa(lp2150
g28
(g32
S'\xf8\xb2\xbf\xc6\xea\xa3\x86?'
p2151
tp2152
Rp2153
aa(lp2154
g28
(g32
S'\x05\xdf\x0b\x90h\xa7\x97?'
p2155
tp2156
Rp2157
aa(lp2158
g28
(g32
S'\xca2\x0b\xc6\x00\xf4\x90?'
p2159
tp2160
Rp2161
aasg114
(lp2162
(lp2163
g28
(g32
S'\xe7\xd2\xafh:U\x8e?'
p2164
tp2165
Rp2166
aag2163
a(lp2167
g28
(g32
S'\x8a\x8e\x7fQ\xf5\x97\x88?'
p2168
tp2169
Rp2170
aa(lp2171
g28
(g32
S'\x04\xb3\x0f\r\x0f\xb0\xb5?'
p2172
tp2173
Rp2174
aa(lp2175
g28
(g32
S'-\\N\x12\x12\x0f\xa2?'
p2176
tp2177
Rp2178
aa(lp2179
g28
(g32
S'i6\xdf\x02\r\x1d\xa5?'
p2180
tp2181
Rp2182
aa(lp2183
g28
(g32
S'\xc6\x94B\x97\xde\xd9\x9c?'
p2184
tp2185
Rp2186
aa(lp2187
g28
(g32
S'G>\xb5\xf8\xd3\xf6\xb0?'
p2188
tp2189
Rp2190
aa(lp2191
g28
(g32
S'!\xdfV\x1c\xc9\xb1\xaa?'
p2192
tp2193
Rp2194
aa(lp2195
g28
(g32
S'\x10\r\x84\xff\xaf\xaa\xa0?'
p2196
tp2197
Rp2198
aa(lp2199
g28
(g32
S'\x87\x1d\xcb\x01R \xa3?'
p2200
tp2201
Rp2202
aa(lp2203
g28
(g32
S'|\xb5\x076\x08t\x92?'
p2204
tp2205
Rp2206
aa(lp2207
g28
(g32
S'\xaa\xf9K\xcff*\x8e?'
p2208
tp2209
Rp2210
aa(lp2211
g28
(g32
S'bX\xf9\xd42\xcf\xa8?'
p2212
tp2213
Rp2214
aa(lp2215
g28
(g32
S'@\x07\xb5\xad<\xb6\xa5?'
p2216
tp2217
Rp2218
aa(lp2219
g28
(g32
S'\xe5\xf8\xa4C:\xc3\x93?'
p2220
tp2221
Rp2222
aa(lp2223
g28
(g32
S'\x13=O\xce\xeb@\x9f?'
p2224
tp2225
Rp2226
aa(lp2227
g28
(g32
S'\xde\xb3K\xe6|\xd5u?'
p2228
tp2229
Rp2230
aa(lp2231
g28
(g32
S'\xdc\xc8\x9aK\xeeP\x9b?'
p2232
tp2233
Rp2234
aa(lp2235
g28
(g32
S'U\xc2\xb3\x08\x91\x0b\xab?'
p2236
tp2237
Rp2238
aa(lp2239
g28
(g32
S'E\xf6\xab\x95p\xee\xa8?'
p2240
tp2241
Rp2242
aasg196
(lp2243
F7.88812518119812
aF7.88812518119812
aF8.1109299659729
aF6.2847900390625
aF9.25769305229187
aF9.218079805374146
aF8.048081874847412
aF7.572344064712524
aF6.077134847640991
aF9.234693050384521
aF7.147098779678345
aF5.237177133560181
aF7.558633804321289
aF5.382996082305908
aF6.721909999847412
aF8.982638120651245
aF6.418319940567017
aF7.419609069824219
aF6.987895965576172
aF8.719579219818115
aF7.766422986984253
assS'X5'
p2244
(dp2245
g3
(lp2246
(lp2247
I52
aag2247
a(lp2248
I53
aa(lp2249
I53
aa(lp2250
I54
aa(lp2251
I51
aa(lp2252
I53
aa(lp2253
I52
aa(lp2254
I53
aa(lp2255
I53
aa(lp2256
I52
aa(lp2257
I53
aa(lp2258
I53
aa(lp2259
I52
aa(lp2260
I54
aa(lp2261
I55
aa(lp2262
I54
aa(lp2263
I52
aa(lp2264
I51
aa(lp2265
I51
aa(lp2266
I53
aasg25
(lp2267
(lp2268
g28
(g32
S'#uP\x81l<\x9b?'
p2269
tp2270
Rp2271
aag2268
a(lp2272
g28
(g32
S'd#rZ\xdb\xc8\x8e?'
p2273
tp2274
Rp2275
aa(lp2276
g28
(g32
S'\x9e\x93.-\x16\x1c\x92?'
p2277
tp2278
Rp2279
aa(lp2280
g28
(g32
S'\xb6\xb7\xc3\x89@1\x9d?'
p2281
tp2282
Rp2283
aa(lp2284
g28
(g32
S'\xffX\x7f\x8a\xfd\x8d\x8e?'
p2285
tp2286
Rp2287
aa(lp2288
g28
(g32
S'[\xde\x02\x82~\xb9\x89?'
p2289
tp2290
Rp2291
aa(lp2292
g28
(g32
S'\xc8\x8b\x9f=\x9c\xa5\x84?'
p2293
tp2294
Rp2295
aa(lp2296
g28
(g32
S'\xa0>(\xc5\xd7\x1a\x95?'
p2297
tp2298
Rp2299
aa(lp2300
g28
(g32
S'l\xd5\x95r\x91\x89r?'
p2301
tp2302
Rp2303
aa(lp2304
g28
(g32
S'bi\x04\xa9\xf8.\x8a?'
p2305
tp2306
Rp2307
aa(lp2308
g28
(g32
S'\x05\x8cu\x18\xbb#\x93?'
p2309
tp2310
Rp2311
aa(lp2312
g28
(g32
S'L\x00~}\xa4\xd7\x8e?'
p2313
tp2314
Rp2315
aa(lp2316
g28
(g32
S'\\L}\xb6\xfb%\x95?'
p2317
tp2318
Rp2319
aa(lp2320
g28
(g32
S'$\xf9\xe9\xec\xf61\x96?'
p2321
tp2322
Rp2323
aa(lp2324
g28
(g32
S'\x98\xcc\xb9m-9\x8d?'
p2325
tp2326
Rp2327
aa(lp2328
g28
(g32
S'\x0cN\xce\x8e\xb9f\x98?'
p2329
tp2330
Rp2331
aa(lp2332
g28
(g32
S'\x1c;\x9e@P\x10\x97?'
p2333
tp2334
Rp2335
aa(lp2336
g28
(g32
S'(\x19\x13R\x99\xf7\x98?'
p2337
tp2338
Rp2339
aa(lp2340
g28
(g32
S'\x875\x99{\xfb:\x92?'
p2341
tp2342
Rp2343
aa(lp2344
g28
(g32
S'\xf8NZ4\xd8\xce\x8e?'
p2345
tp2346
Rp2347
aasg114
(lp2348
(lp2349
g28
(g32
S'\x00\x00\x00\x00\x00\x00\x00\x00'
p2350
tp2351
Rp2352
aag2349
a(lp2353
g28
(g32
S'\x9d\xf8\x085\xf8\xe7\x8c?'
p2354
tp2355
Rp2356
aa(lp2357
g28
(g32
S'\x8f\xe1\x7f\x05\x0c\xb4\xa5?'
p2358
tp2359
Rp2360
aa(lp2361
g28
(g32
S'k\r\xeeI\x19\xf2\xb8?'
p2362
tp2363
Rp2364
aa(lp2365
g28
(g32
S'\x80\x9f\xd8\x0fS_\xa4?'
p2366
tp2367
Rp2368
aa(lp2369
g28
(g32
S'x\x19N\xb6\x93\xe9\x8c?'
p2370
tp2371
Rp2372
aa(lp2373
g28
(g32
S'\xf3_o=&\xc3\x98?'
p2374
tp2375
Rp2376
aa(lp2377
g28
(g32
S'\x0b\x08X\xafL\x96\x99?'
p2378
tp2379
Rp2380
aa(lp2381
g28
(g32
S'\x00\x81\x96\x0f\x9bx\xa8?'
p2382
tp2383
Rp2384
aa(lp2385
g28
(g32
S'\x8eS\xa1t1?\xa8?'
p2386
tp2387
Rp2388
aa(lp2389
g28
(g32
S'\x9c6\xa9RT\xe0\x98?'
p2390
tp2391
Rp2392
aa(lp2393
g28
(g32
S'0\xf5\r{\xdf?\xb2?'
p2394
tp2395
Rp2396
aa(lp2397
g28
(g32
S'\xe1\x9a4\x1e\xbeA\xb0?'
p2398
tp2399
Rp2400
aa(lp2401
g28
(g32
S'\xbf\x93eR\xcc\x08\x9f?'
p2402
tp2403
Rp2404
aa(lp2405
g28
(g32
S'\xe6\x18\xc2*#}\xad?'
p2406
tp2407
Rp2408
aa(lp2409
g28
(g32
S'\xb2\xdf\xc1\r\x8a/\xb9?'
p2410
tp2411
Rp2412
aa(lp2413
g28
(g32
S'\xd5\x8b\x90\xb4\x97m\xa5?'
p2414
tp2415
Rp2416
aa(lp2417
g28
(g32
S'F\x12\xbb\x0eU\xab\xb0?'
p2418
tp2419
Rp2420
aa(lp2421
g28
(g32
S'\xff~~\xf0:\x84\x98?'
p2422
tp2423
Rp2424
aa(lp2425
g28
(g32
S'\xce\x8cCO\x8fG\xab?'
p2426
tp2427
Rp2428
aasg196
(lp2429
F7.530479907989502
aF7.530479907989502
aF6.711038112640381
aF8.688623905181885
aF7.569558143615723
aF8.800998210906982
aF6.117311000823975
aF6.5270280838012695
aF6.31782603263855
aF7.505157947540283
aF6.508795976638794
aF7.608918190002441
aF7.563256025314331
aF7.863391876220703
aF10.70041298866272
aF6.367504119873047
aF7.878363132476807
aF8.216558933258057
aF5.267879962921143
aF7.13164496421814
aF6.1771650314331055
ass.