(dp0
S'P1'
p1
(dp2
S'evals'
p3
(lp4
I53
asS'igd'
p5
(lp6
cnumpy.core.multiarray
scalar
p7
(cnumpy
dtype
p8
(S'f8'
p9
I0
I1
tp10
Rp11
(I3
S'<'
p12
NNNI-1
I-1
I0
tp13
bS'j\xf9\xad\xf3\xb7\xbe\x9d?'
p14
tp15
Rp16
asS'gen_dist'
p17
(lp18
g7
(g11
S'\xad\xb5z2e\xd0\x8e?'
p19
tp20
Rp21
asS'time'
p22
F8.492051839828491
ss.