(dp0
S'P3'
p1
(dp2
S'evals'
p3
(lp4
I53
asS'igd'
p5
(lp6
cnumpy.core.multiarray
scalar
p7
(cnumpy
dtype
p8
(S'f8'
p9
I0
I1
tp10
Rp11
(I3
S'<'
p12
NNNI-1
I-1
I0
tp13
bS'\xc1\xa1\xca\x1d\xba\xe4\xb3?'
p14
tp15
Rp16
asS'gen_dist'
p17
(lp18
g7
(g11
S'\xb3\x17\x9b\x8b\xf1\x13j?'
p19
tp20
Rp21
asS'time'
p22
F10.945544004440308
ss.