(dp0
S'X2'
p1
(dp2
S'evals'
p3
(lp4
I56
asS'igd'
p5
(lp6
cnumpy.core.multiarray
scalar
p7
(cnumpy
dtype
p8
(S'f8'
p9
I0
I1
tp10
Rp11
(I3
S'<'
p12
NNNI-1
I-1
I0
tp13
bS'\x1c\xaf\x12\xceS5\x99?'
p14
tp15
Rp16
asS'gen_dist'
p17
(lp18
g7
(g11
S'\x08\x95\xfa.\xa3T\xa5?'
p19
tp20
Rp21
asS'time'
p22
F7.117158889770508
ss.