(dp0
S'X2'
p1
(dp2
S'evals'
p3
(lp4
I52
asS'igd'
p5
(lp6
cnumpy.core.multiarray
scalar
p7
(cnumpy
dtype
p8
(S'f8'
p9
I0
I1
tp10
Rp11
(I3
S'<'
p12
NNNI-1
I-1
I0
tp13
bS'\x11\x98\xfa\xe8\x8dx\x97?'
p14
tp15
Rp16
asS'gen_dist'
p17
(lp18
g7
(g11
S'\xaa\x12\x9d\x86\xae\x88\x95?'
p19
tp20
Rp21
asS'time'
p22
F6.652261018753052
ss.