(dp0
S'X4'
p1
(dp2
S'evals'
p3
(lp4
I56
asS'igd'
p5
(lp6
cnumpy.core.multiarray
scalar
p7
(cnumpy
dtype
p8
(S'f8'
p9
I0
I1
tp10
Rp11
(I3
S'<'
p12
NNNI-1
I-1
I0
tp13
bS'\xc1\x97o\x9fV\x14\x8f?'
p14
tp15
Rp16
asS'gen_dist'
p17
(lp18
g7
(g11
S'\xc6\x94B\x97\xde\xd9\x9c?'
p19
tp20
Rp21
asS'time'
p22
F8.048081874847412
ss.