(dp0
S'X5'
p1
(dp2
S'evals'
p3
(lp4
I54
asS'igd'
p5
(lp6
cnumpy.core.multiarray
scalar
p7
(cnumpy
dtype
p8
(S'f8'
p9
I0
I1
tp10
Rp11
(I3
S'<'
p12
NNNI-1
I-1
I0
tp13
bS'\xb6\xb7\xc3\x89@1\x9d?'
p14
tp15
Rp16
asS'gen_dist'
p17
(lp18
g7
(g11
S'k\r\xeeI\x19\xf2\xb8?'
p19
tp20
Rp21
asS'time'
p22
F7.569558143615723
ss.