(dp0
S'P1'
p1
(dp2
S'evals'
p3
(lp4
I53
asS'igd'
p5
(lp6
cnumpy.core.multiarray
scalar
p7
(cnumpy
dtype
p8
(S'f8'
p9
I0
I1
tp10
Rp11
(I3
S'<'
p12
NNNI-1
I-1
I0
tp13
bS'\x98\xb0$\xe7-\xfd\xa7?'
p14
tp15
Rp16
asS'gen_dist'
p17
(lp18
g7
(g11
S'\xde\x8ea\xcd\x8e\x8e\x9a?'
p19
tp20
Rp21
asS'time'
p22
F10.391445875167847
ss.