(dp0
S'X1'
p1
(dp2
S'evals'
p3
(lp4
I54
asS'igd'
p5
(lp6
cnumpy.core.multiarray
scalar
p7
(cnumpy
dtype
p8
(S'f8'
p9
I0
I1
tp10
Rp11
(I3
S'<'
p12
NNNI-1
I-1
I0
tp13
bS'\xae\x04(\x86\x08\xc4\x8f?'
p14
tp15
Rp16
asS'gen_dist'
p17
(lp18
g7
(g11
S'\xff\xbb\x92o\x9f\xf8\xad?'
p19
tp20
Rp21
asS'time'
p22
F8.349519968032837
ss.