(dp0
S'X1'
p1
(dp2
S'evals'
p3
(lp4
I52
asS'igd'
p5
(lp6
cnumpy.core.multiarray
scalar
p7
(cnumpy
dtype
p8
(S'f8'
p9
I0
I1
tp10
Rp11
(I3
S'<'
p12
NNNI-1
I-1
I0
tp13
bS'\x9b\x86\xfd[\n\xf3x?'
p14
tp15
Rp16
asS'gen_dist'
p17
(lp18
g7
(g11
S'\x93C\x9d\xf7\x0c\xc6i?'
p19
tp20
Rp21
asS'time'
p22
F8.84936809539795
ss.