(dp0
S'M1'
p1
(dp2
S'evals'
p3
(lp4
I74
asS'igd'
p5
(lp6
cnumpy.core.multiarray
scalar
p7
(cnumpy
dtype
p8
(S'f8'
p9
I0
I1
tp10
Rp11
(I3
S'<'
p12
NNNI-1
I-1
I0
tp13
bS'P\xfc\x0c\x93\xd2\xbc\x92?'
p14
tp15
Rp16
asS'gen_dist'
p17
(lp18
g7
(g11
S'\xf8\xbb\xb0A\xb5|~?'
p19
tp20
Rp21
asS'time'
p22
F19.5618839263916
ss.