(dp0
S'M2'
p1
(dp2
S'evals'
p3
(lp4
I73
asS'igd'
p5
(lp6
cnumpy.core.multiarray
scalar
p7
(cnumpy
dtype
p8
(S'f8'
p9
I0
I1
tp10
Rp11
(I3
S'<'
p12
NNNI-1
I-1
I0
tp13
bS'\x10\x13T]\xc51\x8f?'
p14
tp15
Rp16
asS'gen_dist'
p17
(lp18
g7
(g11
S'\x01\x82\x92\x81\xa4\x9at?'
p19
tp20
Rp21
asS'time'
p22
F27.478412866592407
ss.