(dp0
S'P2'
p1
(dp2
S'evals'
p3
(lp4
I75
asS'igd'
p5
(lp6
cnumpy.core.multiarray
scalar
p7
(cnumpy
dtype
p8
(S'f8'
p9
I0
I1
tp10
Rp11
(I3
S'<'
p12
NNNI-1
I-1
I0
tp13
bS')\x96f\xda\xf7\x0e\xd3?'
p14
tp15
Rp16
asS'gen_dist'
p17
(lp18
g7
(g11
S'M\xdd\xe3\x10\x05\xaa\xbe?'
p19
tp20
Rp21
asS'time'
p22
F12.344557046890259
ss.