(dp0
S'P3'
p1
(dp2
S'evals'
p3
(lp4
I71
asS'igd'
p5
(lp6
cnumpy.core.multiarray
scalar
p7
(cnumpy
dtype
p8
(S'f8'
p9
I0
I1
tp10
Rp11
(I3
S'<'
p12
NNNI-1
I-1
I0
tp13
bS'\xd3\xeab\xe1\xb9\xa7\x9d?'
p14
tp15
Rp16
asS'gen_dist'
p17
(lp18
g7
(g11
S'Ke\x84\x87\x81j\x9c?'
p19
tp20
Rp21
asS'time'
p22
F14.34676480293274
ss.