(dp0
S'X2'
p1
(dp2
S'evals'
p3
(lp4
I75
asS'igd'
p5
(lp6
cnumpy.core.multiarray
scalar
p7
(cnumpy
dtype
p8
(S'f8'
p9
I0
I1
tp10
Rp11
(I3
S'<'
p12
NNNI-1
I-1
I0
tp13
bS'\xb5\xce\x8d\xce\x8d\xc6\x96?'
p14
tp15
Rp16
asS'gen_dist'
p17
(lp18
g7
(g11
S'/\x86\xf4\xc1\xf5\xff\x95?'
p19
tp20
Rp21
asS'time'
p22
F12.76250696182251
ss.