(dp0
S'M2'
p1
(dp2
S'evals'
p3
(lp4
I117
asS'igd'
p5
(lp6
cnumpy.core.multiarray
scalar
p7
(cnumpy
dtype
p8
(S'f8'
p9
I0
I1
tp10
Rp11
(I3
S'<'
p12
NNNI-1
I-1
I0
tp13
bS'S\xc1\xa1\xa2\x84\xaa\x83?'
p14
tp15
Rp16
asS'gen_dist'
p17
(lp18
g7
(g11
S'\xdd\t\xcf\xbf\x8d-d?'
p19
tp20
Rp21
asS'time'
p22
F34.6728880405426
ss.