(dp0
S'P3'
p1
(dp2
S'evals'
p3
(lp4
I113
asS'igd'
p5
(lp6
cnumpy.core.multiarray
scalar
p7
(cnumpy
dtype
p8
(S'f8'
p9
I0
I1
tp10
Rp11
(I3
S'<'
p12
NNNI-1
I-1
I0
tp13
bS'&\xa5\xe9\xe7kn\xae?'
p14
tp15
Rp16
asS'gen_dist'
p17
(lp18
g7
(g11
S'\xce\xd7\x82\xf9\x0c\x12\x9d?'
p19
tp20
Rp21
asS'time'
p22
F25.016566038131714
ss.