(dp0
S'X1'
p1
(dp2
S'evals'
p3
(lp4
I113
asS'igd'
p5
(lp6
cnumpy.core.multiarray
scalar
p7
(cnumpy
dtype
p8
(S'f8'
p9
I0
I1
tp10
Rp11
(I3
S'<'
p12
NNNI-1
I-1
I0
tp13
bS'\x87\xa5\r\xf54\x00\x84?'
p14
tp15
Rp16
asS'gen_dist'
p17
(lp18
g7
(g11
S'\x1a\x94\xa6\xd9\xdd\x04\x9b?'
p19
tp20
Rp21
asS'time'
p22
F23.245166063308716
ss.