(dp0
S'X3'
p1
(dp2
S'evals'
p3
(lp4
I115
asS'igd'
p5
(lp6
cnumpy.core.multiarray
scalar
p7
(cnumpy
dtype
p8
(S'f8'
p9
I0
I1
tp10
Rp11
(I3
S'<'
p12
NNNI-1
I-1
I0
tp13
bS'fA\x90\xf8l\x7fi?'
p14
tp15
Rp16
asS'gen_dist'
p17
(lp18
g7
(g11
S'\x03C\x1d\xd0\x8cv\x8a?'
p19
tp20
Rp21
asS'time'
p22
F18.369796991348267
ss.