(dp0
S'X4'
p1
(dp2
S'evals'
p3
(lp4
I116
asS'igd'
p5
(lp6
cnumpy.core.multiarray
scalar
p7
(cnumpy
dtype
p8
(S'f8'
p9
I0
I1
tp10
Rp11
(I3
S'<'
p12
NNNI-1
I-1
I0
tp13
bS'z\xf7\xb4\xac\x84\xee}?'
p14
tp15
Rp16
asS'gen_dist'
p17
(lp18
g7
(g11
S'\xd1\xf4G\x0ey\x18\x91?'
p19
tp20
Rp21
asS'time'
p22
F20.41326379776001
ss.