(dp0
S'X5'
p1
(dp2
S'evals'
p3
(lp4
I116
asS'igd'
p5
(lp6
cnumpy.core.multiarray
scalar
p7
(cnumpy
dtype
p8
(S'f8'
p9
I0
I1
tp10
Rp11
(I3
S'<'
p12
NNNI-1
I-1
I0
tp13
bS'\xc3\x99\xb4\xed\xc0\x06{?'
p14
tp15
Rp16
asS'gen_dist'
p17
(lp18
g7
(g11
S'\xee\xa1\x06\xce_5\x8e?'
p19
tp20
Rp21
asS'time'
p22
F18.900038957595825
ss.