(dp0
S'X1'
p1
(dp2
S'evals'
p3
(lp4
I71
asS'igd'
p5
(lp6
cnumpy.core.multiarray
scalar
p7
(cnumpy
dtype
p8
(S'f8'
p9
I0
I1
tp10
Rp11
(I3
S'<'
p12
NNNI-1
I-1
I0
tp13
bS'\x8e\x9ae6_\xbb\x82?'
p14
tp15
Rp16
asS'gen_dist'
p17
(lp18
g7
(g11
S'\x00\x04\xda\xa6\xb1\xaa\x99?'
p19
tp20
Rp21
asS'time'
p22
F13.200616121292114
ss.