(dp0
S'P1'
p1
(dp2
S'evals'
p3
(lp4
I73
asS'igd'
p5
(lp6
cnumpy.core.multiarray
scalar
p7
(cnumpy
dtype
p8
(S'f8'
p9
I0
I1
tp10
Rp11
(I3
S'<'
p12
NNNI-1
I-1
I0
tp13
bS'\x8a\xcc\xe5a7B\xaa?'
p14
tp15
Rp16
asS'gen_dist'
p17
(lp18
g7
(g11
S'\xf2\x1f\x0b\xfb\x84S\x97?'
p19
tp20
Rp21
asS'time'
p22
F23.8974130153656
ss.