(dp0
S'P1'
p1
(dp2
S'evals'
p3
(lp4
I73
asS'igd'
p5
(lp6
cnumpy.core.multiarray
scalar
p7
(cnumpy
dtype
p8
(S'f8'
p9
I0
I1
tp10
Rp11
(I3
S'<'
p12
NNNI-1
I-1
I0
tp13
bS'\xbeZ9a\x0e\xee\xae?'
p14
tp15
Rp16
asS'gen_dist'
p17
(lp18
g7
(g11
S'\xe1`\x1c\x06E\xf9\xf1>'
p19
tp20
Rp21
asS'time'
p22
F20.009056091308594
ss.