(dp0
S'P2'
p1
(dp2
S'evals'
p3
(lp4
I73
asS'igd'
p5
(lp6
cnumpy.core.multiarray
scalar
p7
(cnumpy
dtype
p8
(S'f8'
p9
I0
I1
tp10
Rp11
(I3
S'<'
p12
NNNI-1
I-1
I0
tp13
bS'\xba\x15\xd3\xdb\xbe\xba\xd1?'
p14
tp15
Rp16
asS'gen_dist'
p17
(lp18
g7
(g11
S'\x0b>\x1c\x14,\xe1\xc1?'
p19
tp20
Rp21
asS'time'
p22
F12.400717973709106
ss.