(dp0
S'X1'
p1
(dp2
S'evals'
p3
(lp4
I72
asS'igd'
p5
(lp6
cnumpy.core.multiarray
scalar
p7
(cnumpy
dtype
p8
(S'f8'
p9
I0
I1
tp10
Rp11
(I3
S'<'
p12
NNNI-1
I-1
I0
tp13
bS'9\xb6\xb65\xb6\xbd}?'
p14
tp15
Rp16
asS'gen_dist'
p17
(lp18
g7
(g11
S'4T\xa1\x16JY\xa3?'
p19
tp20
Rp21
asS'time'
p22
F15.253542184829712
ss.