(dp0
S'X2'
p1
(dp2
S'evals'
p3
(lp4
I73
asS'igd'
p5
(lp6
cnumpy.core.multiarray
scalar
p7
(cnumpy
dtype
p8
(S'f8'
p9
I0
I1
tp10
Rp11
(I3
S'<'
p12
NNNI-1
I-1
I0
tp13
bS"\xf8\xf3'\xac\x18\xa8\x9b?"
p14
tp15
Rp16
asS'gen_dist'
p17
(lp18
g7
(g11
S'\xde~\x99\x07\x1aQ\x82?'
p19
tp20
Rp21
asS'time'
p22
F9.130851030349731
ss.