(dp0
S'X3'
p1
(dp2
S'evals'
p3
(lp4
I71
asS'igd'
p5
(lp6
cnumpy.core.multiarray
scalar
p7
(cnumpy
dtype
p8
(S'f8'
p9
I0
I1
tp10
Rp11
(I3
S'<'
p12
NNNI-1
I-1
I0
tp13
bS'\xe79\xd9\x14\xc4\x11{?'
p14
tp15
Rp16
asS'gen_dist'
p17
(lp18
g7
(g11
S'u\xe7<\xb0\xc2\xa1^?'
p19
tp20
Rp21
asS'time'
p22
F15.147228002548218
ss.