(dp0
S'X4'
p1
(dp2
S'evals'
p3
(lp4
I73
asS'igd'
p5
(lp6
cnumpy.core.multiarray
scalar
p7
(cnumpy
dtype
p8
(S'f8'
p9
I0
I1
tp10
Rp11
(I3
S'<'
p12
NNNI-1
I-1
I0
tp13
bS'\xc9\x10\x8b=\r\xf7\x85?'
p14
tp15
Rp16
asS'gen_dist'
p17
(lp18
g7
(g11
S'\xb4\xac\x05\x03?\xb4\x9d?'
p19
tp20
Rp21
asS'time'
p22
F12.965901136398315
ss.