(dp0
S'M1'
p1
(dp2
S'evals'
p3
(lp4
I32
asS'igd'
p5
(lp6
cnumpy.core.multiarray
scalar
p7
(cnumpy
dtype
p8
(S'f8'
p9
I0
I1
tp10
Rp11
(I3
S'<'
p12
NNNI-1
I-1
I0
tp13
bS'\xfc\xba\r\xd6\xe3\xf7\x9e?'
p14
tp15
Rp16
asS'gen_dist'
p17
(lp18
g7
(g11
S"\x88\xd7\x83'\xac\xbf\x89?"
p19
tp20
Rp21
asS'time'
p22
F20.655399084091187
ss.