(dp0
S'P2'
p1
(dp2
S'evals'
p3
(lp4
I32
asS'igd'
p5
(lp6
cnumpy.core.multiarray
scalar
p7
(cnumpy
dtype
p8
(S'f8'
p9
I0
I1
tp10
Rp11
(I3
S'<'
p12
NNNI-1
I-1
I0
tp13
bS'\xfe\xa5\x97\x96\x19\xb3\xb3?'
p14
tp15
Rp16
asS'gen_dist'
p17
(lp18
g7
(g11
S'\xac\xc9k4u\x01\xa2?'
p19
tp20
Rp21
asS'time'
p22
F5.7997870445251465
ss.