(dp0
S'P3'
p1
(dp2
S'evals'
p3
(lp4
I31
asS'igd'
p5
(lp6
cnumpy.core.multiarray
scalar
p7
(cnumpy
dtype
p8
(S'f8'
p9
I0
I1
tp10
Rp11
(I3
S'<'
p12
NNNI-1
I-1
I0
tp13
bS'\xfdA\xd1\xa5\xa1\x84\xbf?'
p14
tp15
Rp16
asS'gen_dist'
p17
(lp18
g7
(g11
S'\xfc\xde\xda\xb0\x19\xdf\x9c?'
p19
tp20
Rp21
asS'time'
p22
F9.52413296699524
ss.