(dp0
S'X4'
p1
(dp2
S'evals'
p3
(lp4
I33
asS'igd'
p5
(lp6
cnumpy.core.multiarray
scalar
p7
(cnumpy
dtype
p8
(S'f8'
p9
I0
I1
tp10
Rp11
(I3
S'<'
p12
NNNI-1
I-1
I0
tp13
bS'\xa6\xe4w$\xa4\xe8\x8b?'
p14
tp15
Rp16
asS'gen_dist'
p17
(lp18
g7
(g11
S'\x90\x92\xdb(&\xfc\x8a?'
p19
tp20
Rp21
asS'time'
p22
F6.073423147201538
ss.