(dp0
S'P2'
p1
(dp2
S'evals'
p3
(lp4
(lp5
I2100
aa(lp6
I2100
aa(lp7
I2100
aa(lp8
I2100
aa(lp9
I2100
aa(lp10
I2100
aa(lp11
I2100
aa(lp12
I2100
aa(lp13
I2100
aa(lp14
I2100
aa(lp15
I2100
aa(lp16
I2100
aa(lp17
I2100
aa(lp18
I2100
aa(lp19
I2100
aa(lp20
I2100
aa(lp21
I2100
aa(lp22
I2100
aa(lp23
I2100
aa(lp24
I2100
aasS'igd'
p25
(lp26
(lp27
cnumpy.core.multiarray
scalar
p28
(cnumpy
dtype
p29
(S'f8'
p30
I0
I1
tp31
Rp32
(I3
S'<'
p33
NNNI-1
I-1
I0
tp34
bS'4\r\xfd0\x17\xc4\x96?'
p35
tp36
Rp37
aa(lp38
g28
(g32
S'\xd8\x820\x12\xb31\x91?'
p39
tp40
Rp41
aa(lp42
g28
(g32
S"\x88'D\x91\xd6\xbe\x9f?"
p43
tp44
Rp45
aa(lp46
g28
(g32
S'R\x9b\xc7\xef\x7f\xe1C?'
p47
tp48
Rp49
aa(lp50
g28
(g32
S'y\xedt\xa8n\x87S?'
p51
tp52
Rp53
aa(lp54
g28
(g32
S'\xc5f\xc3\x88\x90\xa7S?'
p55
tp56
Rp57
aa(lp58
g28
(g32
S':\x83\x81$_\xb7\x99?'
p59
tp60
Rp61
aa(lp62
g28
(g32
S'\x8a=I\xe5\xa1\xf7\x88?'
p63
tp64
Rp65
aa(lp66
g28
(g32
S'\x8e\xd8\x82\xe5>\x8a_?'
p67
tp68
Rp69
aa(lp70
g28
(g32
S'Q\xb7\xce\x02\xcf\xc1\x86?'
p71
tp72
Rp73
aa(lp74
g28
(g32
S'\x93\xaa\x8a\x86\xf7?\xae?'
p75
tp76
Rp77
aa(lp78
g28
(g32
S'R\x00\x80\xd3\xc4X\x7f?'
p79
tp80
Rp81
aa(lp82
g28
(g32
S'i\x99"\xcb\x90\xa1\x92?'
p83
tp84
Rp85
aa(lp86
g28
(g32
S'\xd2\xd4\xf3mC\xb1\xa4?'
p87
tp88
Rp89
aa(lp90
g28
(g32
S'=Za\xf4;\xdbV?'
p91
tp92
Rp93
aa(lp94
g28
(g32
S'\xa5}\xce\rr\xfba?'
p95
tp96
Rp97
aa(lp98
g28
(g32
S'-\x83\xac\xaa>\x94\x9c?'
p99
tp100
Rp101
aa(lp102
g28
(g32
S'H\xdc\x0cXt\xf3\x9c?'
p103
tp104
Rp105
aa(lp106
g28
(g32
S'J/\xcd\x05\xba(g?'
p107
tp108
Rp109
aa(lp110
g28
(g32
S'\xe2g\xe5,\xe2\xe0F?'
p111
tp112
Rp113
aasS'gen_dist'
p114
(lp115
(lp116
g28
(g32
S'e\xa1\xce7q\x1d\xbc?'
p117
tp118
Rp119
aa(lp120
g28
(g32
S'A\xc6\xbe/2\x0e\xc0?'
p121
tp122
Rp123
aa(lp124
g28
(g32
S'\xbe\x04a\xa9\x9e]\xd1?'
p125
tp126
Rp127
aa(lp128
g28
(g32
S'e8\xa2u\xa1\x7f\xc8?'
p129
tp130
Rp131
aa(lp132
g28
(g32
S"'U\x1e*\x1c\xd3\xd2?"
p133
tp134
Rp135
aa(lp136
g28
(g32
S'\x08\xe9\xf5M\xf0f\xba?'
p137
tp138
Rp139
aa(lp140
g28
(g32
S'\xa3\x9a\x99(\x06\xf3\xca?'
p141
tp142
Rp143
aa(lp144
g28
(g32
S"'\xaa \xa2\xddm\xc4?"
p145
tp146
Rp147
aa(lp148
g28
(g32
S'\xdf\x02\xa6\xb62\xd4\xcd?'
p149
tp150
Rp151
aa(lp152
g28
(g32
S'\x93\x01\x80\xe1\x06\x04\xca?'
p153
tp154
Rp155
aa(lp156
g28
(g32
S'\xaeX\xf5\x89\xba[\xca?'
p157
tp158
Rp159
aa(lp160
g28
(g32
S'\xb7\xc3\x0b\x11\xe5\xa1\xd0?'
p161
tp162
Rp163
aa(lp164
g28
(g32
S'\x15\x1d\xab\xb7\x8b\xcf\xc3?'
p165
tp166
Rp167
aa(lp168
g28
(g32
S'\xf3\xbf4\xb4;\x85\xd2?'
p169
tp170
Rp171
aa(lp172
g28
(g32
S'\\_q\xab\x8d\x80\xc6?'
p173
tp174
Rp175
aa(lp176
g28
(g32
S'\xda2B\xca!k\xbb?'
p177
tp178
Rp179
aa(lp180
g28
(g32
S'\xa05G\xf8\x88N\xcf?'
p181
tp182
Rp183
aa(lp184
g28
(g32
S'\x96\x0fg<\xc6*\xc7?'
p185
tp186
Rp187
aa(lp188
g28
(g32
S'N\xcfm\x94%\xca\xcf?'
p189
tp190
Rp191
aa(lp192
g28
(g32
S'\x8d{\xd3[\x85\x94\xc9?'
p193
tp194
Rp195
aassS'P3'
p196
(dp197
g3
(lp198
(lp199
I2100
aa(lp200
I2100
aa(lp201
I2100
aa(lp202
I2100
aa(lp203
I2100
aa(lp204
I2100
aa(lp205
I2100
aa(lp206
I2100
aa(lp207
I2100
aa(lp208
I2100
aa(lp209
I2100
aa(lp210
I2100
aa(lp211
I2100
aa(lp212
I2100
aa(lp213
I2100
aa(lp214
I2100
aa(lp215
I2100
aa(lp216
I2100
aa(lp217
I2100
aa(lp218
I2100
aasg25
(lp219
(lp220
g28
(g32
S'\x04W\x8b\x82wp\x8c?'
p221
tp222
Rp223
aa(lp224
g28
(g32
S'\x8f\x8a$"\x1c\xc3\x89?'
p225
tp226
Rp227
aa(lp228
g28
(g32
S"\xbf\xf6\x94'Q\x06\x90?"
p229
tp230
Rp231
aa(lp232
g28
(g32
S'\x01\xbb\x85f\xdfB\x7f?'
p233
tp234
Rp235
aa(lp236
g28
(g32
S'\x96\x97;\xe0\x8d\xba\x8c?'
p237
tp238
Rp239
aa(lp240
g28
(g32
S'\x14/\x08FIJ\x83?'
p241
tp242
Rp243
aa(lp244
g28
(g32
S'\xe7\xc5\xb6\x9c\xd75\x82?'
p245
tp246
Rp247
aa(lp248
g28
(g32
S'4\xf7`\x81\xa9\x17\x90?'
p249
tp250
Rp251
aa(lp252
g28
(g32
S'\xe4~\xeb\x1b 3\x95?'
p253
tp254
Rp255
aa(lp256
g28
(g32
S'\xfd\xfcd%\x9eq\x94?'
p257
tp258
Rp259
aa(lp260
g28
(g32
S'*\xe5d\x907v\x87?'
p261
tp262
Rp263
aa(lp264
g28
(g32
S'Nu~\x91\xde\xe8\x82?'
p265
tp266
Rp267
aa(lp268
g28
(g32
S'-\x8dt\x06\x9fA\x9b?'
p269
tp270
Rp271
aa(lp272
g28
(g32
S'3\x916\xd5\xc3\xbc\x90?'
p273
tp274
Rp275
aa(lp276
g28
(g32
S'\xb6\x03H\xfetk\x90?'
p277
tp278
Rp279
aa(lp280
g28
(g32
S'\xdd;\xd3x\xac\x06\x8a?'
p281
tp282
Rp283
aa(lp284
g28
(g32
S'\xdf\x1f\xe6\x93=\xe1\x82?'
p285
tp286
Rp287
aa(lp288
g28
(g32
S'o\xb1\xcc\xafC\xde\x8e?'
p289
tp290
Rp291
aa(lp292
g28
(g32
S'\xd0\x00\xc1\x82\xf94\x90?'
p293
tp294
Rp295
aa(lp296
g28
(g32
S'\x19\xe9\xf0\xd6o\xd4\x92?'
p297
tp298
Rp299
aasg114
(lp300
(lp301
g28
(g32
S'|\x05\x05\xb3i^\x91?'
p302
tp303
Rp304
aa(lp305
g28
(g32
S'\xe6C3\x05\xdf\x04\x85?'
p306
tp307
Rp308
aa(lp309
g28
(g32
S'n\xe5\xdf\xaa\xa6\x9a\x97?'
p310
tp311
Rp312
aa(lp313
g28
(g32
S'\x88K\xb2\x03\x9a\x19\x8a?'
p314
tp315
Rp316
aa(lp317
g28
(g32
S'7\xa0A5\x04\x19\x8d?'
p318
tp319
Rp320
aa(lp321
g28
(g32
S'\xbc\xff\x18\xe8\xddj\x8b?'
p322
tp323
Rp324
aa(lp325
g28
(g32
S'\xf1D@\xae\x90\xfb\x92?'
p326
tp327
Rp328
aa(lp329
g28
(g32
S'\x96\xfd\x9b\xbc>\x7f\x89?'
p330
tp331
Rp332
aa(lp333
g28
(g32
S'Z\x7f;T(\xac\x83?'
p334
tp335
Rp336
aa(lp337
g28
(g32
S'm\x16E\xfa\x8bK\x8a?'
p338
tp339
Rp340
aa(lp341
g28
(g32
S'\x9a&\xbfzb\xad\x86?'
p342
tp343
Rp344
aa(lp345
g28
(g32
S'\xe6\x00=\xa58e\x87?'
p346
tp347
Rp348
aa(lp349
g28
(g32
S'.Q\xe0iv\x9a\x84?'
p350
tp351
Rp352
aa(lp353
g28
(g32
S'\xe8Z\xdaY\xa8W\x8f?'
p354
tp355
Rp356
aa(lp357
g28
(g32
S'\xd6\x16\xa0NG3\x89?'
p358
tp359
Rp360
aa(lp361
g28
(g32
S'1\xf5!\xc5\x92\xf2\x90?'
p362
tp363
Rp364
aa(lp365
g28
(g32
S' \xa6_\xcb\xe0A\x8f?'
p366
tp367
Rp368
aa(lp369
g28
(g32
S"\xdfm\xf0\xe1'\xb8\x91?"
p370
tp371
Rp372
aa(lp373
g28
(g32
S'\x0c\xd1}\xa9\x12\xe6\x8b?'
p374
tp375
Rp376
aa(lp377
g28
(g32
S'\xd7\xbb\xd5\xf8a\x9a\x8d?'
p378
tp379
Rp380
aassS'P1'
p381
(dp382
g3
(lp383
(lp384
I2100
aa(lp385
I2100
aa(lp386
I2100
aa(lp387
I2100
aa(lp388
I2100
aa(lp389
I2100
aa(lp390
I2100
aa(lp391
I2100
aa(lp392
I2100
aa(lp393
I2100
aa(lp394
I2100
aa(lp395
I2100
aa(lp396
I2100
aa(lp397
I2100
aa(lp398
I2100
aa(lp399
I2100
aa(lp400
I2100
aa(lp401
I2100
aa(lp402
I2100
aa(lp403
I2100
aasg25
(lp404
(lp405
g28
(g32
S'XC.\xa8\xfa\x14~?'
p406
tp407
Rp408
aa(lp409
g28
(g32
S' \xa1\x8bg\xce\xc0q?'
p410
tp411
Rp412
aa(lp413
g28
(g32
S'JD\xfb\xad\x02\xd9}?'
p414
tp415
Rp416
aa(lp417
g28
(g32
S'\xca9\x05f\xaf\x81\x85?'
p418
tp419
Rp420
aa(lp421
g28
(g32
S'\xe0YaK\xba\xcd\x7f?'
p422
tp423
Rp424
aa(lp425
g28
(g32
S'\xbd\x95\xcc\xfc|\xf4|?'
p426
tp427
Rp428
aa(lp429
g28
(g32
S'&t\xca\xa6\xe8Q\x87?'
p430
tp431
Rp432
aa(lp433
g28
(g32
S'\x89\x13\xf6\xd3\xb4\x9eq?'
p434
tp435
Rp436
aa(lp437
g28
(g32
S'D\xfb\xdb&\r\x85\x83?'
p438
tp439
Rp440
aa(lp441
g28
(g32
S'*\x96\x19!\xd0\xbb\x82?'
p442
tp443
Rp444
aa(lp445
g28
(g32
S'\x9e\x1c\x8e\x8d\x1aS\x8d?'
p446
tp447
Rp448
aa(lp449
g28
(g32
S'\xcaN\xbc`>k\x80?'
p450
tp451
Rp452
aa(lp453
g28
(g32
S'\xa1\xb6\xfa\xba\x8b<o?'
p454
tp455
Rp456
aa(lp457
g28
(g32
S'/9Vd\x18@v?'
p458
tp459
Rp460
aa(lp461
g28
(g32
S'ho\xba):q\x84?'
p462
tp463
Rp464
aa(lp465
g28
(g32
S'\x81\x0e\x9d\x8f\x84\xe9\x92?'
p466
tp467
Rp468
aa(lp469
g28
(g32
S'\x1cm\xce\xcfb\xf0x?'
p470
tp471
Rp472
aa(lp473
g28
(g32
S'\xde\xe4\x1f\xe9\xbf\x08~?'
p474
tp475
Rp476
aa(lp477
g28
(g32
S'\xee\xf3\x08\xd9\xae-\x92?'
p478
tp479
Rp480
aa(lp481
g28
(g32
S'\xe0\x7f\xb5\xdb\x9c\x1f\x80?'
p482
tp483
Rp484
aasg114
(lp485
(lp486
g28
(g32
S'\xf5f\xbe\x14\xb5i\xa0?'
p487
tp488
Rp489
aa(lp490
g28
(g32
S'f\xb3Y\xf3o\x0e\x99?'
p491
tp492
Rp493
aa(lp494
g28
(g32
S'\xadO4.\xa5E\x90?'
p495
tp496
Rp497
aa(lp498
g28
(g32
S'\xaf\xeaye\xefu\xa0?'
p499
tp500
Rp501
aa(lp502
g28
(g32
S"id\xfa\xbe\xeb'\x92?"
p503
tp504
Rp505
aa(lp506
g28
(g32
S'\xceP\xd0sl\x14\x92?'
p507
tp508
Rp509
aa(lp510
g28
(g32
S'2\xd6g\xa7\xc8<\x97?'
p511
tp512
Rp513
aa(lp514
g28
(g32
S'O\xcf\x9am\xd72\x9d?'
p515
tp516
Rp517
aa(lp518
g28
(g32
S'\x04\x96\xaej\xba\xf9\xa7?'
p519
tp520
Rp521
aa(lp522
g28
(g32
S'\\3"\xfe\xc3\xa3\x97?'
p523
tp524
Rp525
aa(lp526
g28
(g32
S'4yt\n|:\x98?'
p527
tp528
Rp529
aa(lp530
g28
(g32
S'H>2\x93/?\x92?'
p531
tp532
Rp533
aa(lp534
g28
(g32
S'\x91\xe0\x1b\x98\x9eD\x8d?'
p535
tp536
Rp537
aa(lp538
g28
(g32
S'Y\xc4\xf9\xc1\x8d\\\x91?'
p539
tp540
Rp541
aa(lp542
g28
(g32
S'\x80\x8e\xd8\xad\xe7\x15\x9c?'
p543
tp544
Rp545
aa(lp546
g28
(g32
S'\xbc\xc6\x88t\x15\xf0\xa7?'
p547
tp548
Rp549
aa(lp550
g28
(g32
S'\xb6_\xeb\xca\x1fo\x92?'
p551
tp552
Rp553
aa(lp554
g28
(g32
S'\x9d\xdea\x7f\x81\xac\x9d?'
p555
tp556
Rp557
aa(lp558
g28
(g32
S'\x16f\xe8\xe8Z{\x8a?'
p559
tp560
Rp561
aa(lp562
g28
(g32
S'\xf7\xbe\xf0\xdc\xf1B\x8d?'
p563
tp564
Rp565
aassS'P4'
p566
(dp567
g3
(lp568
(lp569
I2100
aa(lp570
I2100
aa(lp571
I2100
aa(lp572
I2100
aa(lp573
I2100
aa(lp574
I2100
aa(lp575
I2100
aa(lp576
I2100
aa(lp577
I2100
aa(lp578
I2100
aa(lp579
I2100
aa(lp580
I2100
aa(lp581
I2100
aa(lp582
I2100
aa(lp583
I2100
aa(lp584
I2100
aa(lp585
I2100
aa(lp586
I2100
aa(lp587
I2100
aa(lp588
I2100
aasg25
(lp589
(lp590
g28
(g32
S'\x9a\x12@L7\xb2\x17?'
p591
tp592
Rp593
aa(lp594
g28
(g32
S'\xb0\xb8\xednN\x18\xed>'
p595
tp596
Rp597
aa(lp598
g28
(g32
S'C\xd0\x81\xa5\x16\xa0\x10?'
p599
tp600
Rp601
aa(lp602
g28
(g32
S'\x12\xb5\xaf\xac\xd5\x89\x17?'
p603
tp604
Rp605
aa(lp606
g28
(g32
S'y\x7f@;\xd1( ?'
p607
tp608
Rp609
aa(lp610
g28
(g32
S'\x07\x1c\xc2p\nR\x16?'
p611
tp612
Rp613
aa(lp614
g28
(g32
S'\r\x04?C\xb7F2?'
p615
tp616
Rp617
aa(lp618
g28
(g32
S'\xfd\xf1WR[m\x1c?'
p619
tp620
Rp621
aa(lp622
g28
(g32
S'v\rOB\r\x1e ?'
p623
tp624
Rp625
aa(lp626
g28
(g32
S'\x83\xc5\x96\xe7l\x82\r?'
p627
tp628
Rp629
aa(lp630
g28
(g32
S'\xc6\xf5\xb9\\\xc7\x16\x13?'
p631
tp632
Rp633
aa(lp634
g28
(g32
S'k\xaem{\x02l!?'
p635
tp636
Rp637
aa(lp638
g28
(g32
S'\x80\x9d \xda\x13\xa7\x07?'
p639
tp640
Rp641
aa(lp642
g28
(g32
S'\xf2\xb3\xd4\xae\x95\x82\xf8>'
p643
tp644
Rp645
aa(lp646
g28
(g32
S'}\xa3\xdf\xc2RP\xe2?'
p647
tp648
Rp649
aa(lp650
g28
(g32
S'rh@L4\x93\x01?'
p651
tp652
Rp653
aa(lp654
g28
(g32
S'a\x8c`2\x8d\x18\xd9>'
p655
tp656
Rp657
aa(lp658
g28
(g32
S'\xda\xb6\x1a\x7f#\x00\xeb>'
p659
tp660
Rp661
aa(lp662
g28
(g32
S'\x0c\xa2Um\x84\xf5\xe5?'
p663
tp664
Rp665
aa(lp666
g28
(g32
S'\xf37\xb1\t\xbd\xa94?'
p667
tp668
Rp669
aasg114
(lp670
(lp671
g28
(g32
S'\xc6\x03\xf8<,\x9c\xc0?'
p672
tp673
Rp674
aa(lp675
g28
(g32
S'\xe5`;\x84\x87D\xb9?'
p676
tp677
Rp678
aa(lp679
g28
(g32
S',\r\xff\xb4\x1f\x12\xc2?'
p680
tp681
Rp682
aa(lp683
g28
(g32
S'I\xe5\x04EN\xc6\xba?'
p684
tp685
Rp686
aa(lp687
g28
(g32
S'\xae\x1fX\xb6K\xe2\xbc?'
p688
tp689
Rp690
aa(lp691
g28
(g32
S'\xaf(\xfbu\x01\xa9\xc0?'
p692
tp693
Rp694
aa(lp695
g28
(g32
S'\xed\xc3\xde\xcbW\xff\xbe?'
p696
tp697
Rp698
aa(lp699
g28
(g32
S'!\xc20\x11\xd4M\xc2?'
p700
tp701
Rp702
aa(lp703
g28
(g32
S'\x8a{J\xac\xb2\xc5\xbd?'
p704
tp705
Rp706
aa(lp707
g28
(g32
S'\x93\xb6\x83\xbf\xcc\xea\xb1?'
p708
tp709
Rp710
aa(lp711
g28
(g32
S'I\xd4\xb2\x94\xdcL\xbb?'
p712
tp713
Rp714
aa(lp715
g28
(g32
S'|\x94\x98\x85/\x96\xb7?'
p716
tp717
Rp718
aa(lp719
g28
(g32
S'Mg\xe9\xf6\x19\xa6\xbb?'
p720
tp721
Rp722
aa(lp723
g28
(g32
S'qX/bk*\xb9?'
p724
tp725
Rp726
aa(lp727
g28
(g32
S'\x16W`8zp\xbd?'
p728
tp729
Rp730
aa(lp731
g28
(g32
S'C)\xd4\xa7\xee\xfe\xbc?'
p732
tp733
Rp734
aa(lp735
g28
(g32
S'\x18\xbe\xef\xbfT\xea\xb8?'
p736
tp737
Rp738
aa(lp739
g28
(g32
S'7\x16\x12G\xa4\xac\xab?'
p740
tp741
Rp742
aa(lp743
g28
(g32
S'\x8a;b[\xa3*\xb8?'
p744
tp745
Rp746
aa(lp747
g28
(g32
S'\x0f\x8e\x1b)\xf8\xa0\xb4?'
p748
tp749
Rp750
aassS'M4'
p751
(dp752
g3
(lp753
(lp754
I2100
aa(lp755
I2100
aa(lp756
I2100
aa(lp757
I2100
aa(lp758
I2100
aa(lp759
I2100
aa(lp760
I2100
aa(lp761
I2100
aa(lp762
I2100
aa(lp763
I2100
aa(lp764
I2100
aa(lp765
I2100
aa(lp766
I2100
aa(lp767
I2100
aa(lp768
I2100
aa(lp769
I2100
aa(lp770
I2100
aa(lp771
I2100
aa(lp772
I2100
aa(lp773
I2100
aasg25
(lp774
(lp775
g28
(g32
S'T\x10)\xa0\x9b\xca\xf1?'
p776
tp777
Rp778
aa(lp779
g28
(g32
S'8W\x91\xbdw\xeb\xf1?'
p780
tp781
Rp782
aa(lp783
g28
(g32
S'\x04P\x98\x11\x04\xe1\xf1?'
p784
tp785
Rp786
aa(lp787
g28
(g32
S'\x00\xd8\x9c\x02Y\xc3\xf0?'
p788
tp789
Rp790
aa(lp791
g28
(g32
S'\xaf\x8a\xa3\xa8\xc3\xb0\xf1?'
p792
tp793
Rp794
aa(lp795
g28
(g32
S'\t\x8a:\x8eg9\xf0?'
p796
tp797
Rp798
aa(lp799
g28
(g32
S'M\xa7\x02DEm\xf1?'
p800
tp801
Rp802
aa(lp803
g28
(g32
S'\xbdxP*\xdb\xdd\xf0?'
p804
tp805
Rp806
aa(lp807
g28
(g32
S'\x9fm\xa9\xa2 \xab\xf0?'
p808
tp809
Rp810
aa(lp811
g28
(g32
S'\xe0\xdf\x14\x03\xe6*\xf2?'
p812
tp813
Rp814
aa(lp815
g28
(g32
S'Nt=\x8f\x1dF\xf1?'
p816
tp817
Rp818
aa(lp819
g28
(g32
S'i\x83\xc0k\x07\xf9\xf1?'
p820
tp821
Rp822
aa(lp823
g28
(g32
S'\xcf\xd3\xfc\x12\x98\xcb\xf0?'
p824
tp825
Rp826
aa(lp827
g28
(g32
S'\xaa\xcf\x9bI\x82\xe7\xf1?'
p828
tp829
Rp830
aa(lp831
g28
(g32
S'\xeb\xf9\xa7\xf8\x02\x06\xf1?'
p832
tp833
Rp834
aa(lp835
g28
(g32
S'\x1bdaf\xd9\xd6\xf0?'
p836
tp837
Rp838
aa(lp839
g28
(g32
S'\xcb\xd4\xbc\x0c9p\xf1?'
p840
tp841
Rp842
aa(lp843
g28
(g32
S'\xca\xfa#.\x8f\xc1\xf0?'
p844
tp845
Rp846
aa(lp847
g28
(g32
S'\x8d\x83\xed\xfe\x11!\xf2?'
p848
tp849
Rp850
aa(lp851
g28
(g32
S'\xf8<\xc9\xb0\x014\xf1?'
p852
tp853
Rp854
aasg114
(lp855
(lp856
g28
(g32
S'\x93\x89\x98y\xaa\xe2\xe4?'
p857
tp858
Rp859
aa(lp860
g28
(g32
S'}O\x9fn\xfb\xad\xe2?'
p861
tp862
Rp863
aa(lp864
g28
(g32
S'\xf9rP[i\xb2\xe2?'
p865
tp866
Rp867
aa(lp868
g28
(g32
S'X-\xa4\xb92?\xe4?'
p869
tp870
Rp871
aa(lp872
g28
(g32
S'\xb19\x18oD\xc3\xe1?'
p873
tp874
Rp875
aa(lp876
g28
(g32
S'\xe2\x1cz)%,\xe1?'
p877
tp878
Rp879
aa(lp880
g28
(g32
S'5\x08\xcb\xe8U\xe9\xe0?'
p881
tp882
Rp883
aa(lp884
g28
(g32
S'\xd06^?\xe6\xd9\xe3?'
p885
tp886
Rp887
aa(lp888
g28
(g32
S'\xa1L\xa0\xc7\xbe\xe5\xe1?'
p889
tp890
Rp891
aa(lp892
g28
(g32
S'\x1d9>\xa3\xe1 \xe3?'
p893
tp894
Rp895
aa(lp896
g28
(g32
S'\xb42\xa1\xca\x1f\xac\xe1?'
p897
tp898
Rp899
aa(lp900
g28
(g32
S'\x7fG\xf1\xe4\xa5]\xe2?'
p901
tp902
Rp903
aa(lp904
g28
(g32
S'\xa6\x9b \xaf\xea\xa7\xe1?'
p905
tp906
Rp907
aa(lp908
g28
(g32
S'6\xf1\xeb\x16\x11p\xe3?'
p909
tp910
Rp911
aa(lp912
g28
(g32
S'\xd2\x8d\x03\xd2\xa7[\xe2?'
p913
tp914
Rp915
aa(lp916
g28
(g32
S'\xaf\xd5\x8b\xf4\xbf\x8f\xe0?'
p917
tp918
Rp919
aa(lp920
g28
(g32
S'Ms\x89c\x8a\xe7\xe1?'
p921
tp922
Rp923
aa(lp924
g28
(g32
S'\x93a\xe1\x82X\x81\xe2?'
p925
tp926
Rp927
aa(lp928
g28
(g32
S'\xe6eD\xa3\x9f\xde\xe0?'
p929
tp930
Rp931
aa(lp932
g28
(g32
S'\xdb\xd0VE>\x04\xe3?'
p933
tp934
Rp935
aassS'M1'
p936
(dp937
g3
(lp938
(lp939
I2100
aa(lp940
I2100
aa(lp941
I2100
aa(lp942
I2100
aa(lp943
I2100
aa(lp944
I2100
aa(lp945
I2100
aa(lp946
I2100
aa(lp947
I2100
aa(lp948
I2100
aa(lp949
I2100
aa(lp950
I2100
aa(lp951
I2100
aa(lp952
I2100
aa(lp953
I2100
aa(lp954
I2100
aa(lp955
I2100
aa(lp956
I2100
aa(lp957
I2100
aa(lp958
I2100
aasg25
(lp959
(lp960
g28
(g32
S' \xdaU\x08%&\xe2?'
p961
tp962
Rp963
aa(lp964
g28
(g32
S'=\xb32C\xda\xfa\xea?'
p965
tp966
Rp967
aa(lp968
g28
(g32
S'\x95\x82.\xc7\xec\x8c\xe1?'
p969
tp970
Rp971
aa(lp972
g28
(g32
S'\x849\xfcLu\xc9\xe3?'
p973
tp974
Rp975
aa(lp976
g28
(g32
S'\xcdt\xd8n0s\xe2?'
p977
tp978
Rp979
aa(lp980
g28
(g32
S'N\xf3@\x8b\x89m\xe1?'
p981
tp982
Rp983
aa(lp984
g28
(g32
S'n3\xf23i\x0f\xe1?'
p985
tp986
Rp987
aa(lp988
g28
(g32
S'5\x80\xd5o:\xaa\xdf?'
p989
tp990
Rp991
aa(lp992
g28
(g32
S'\xd0\xc4\x10\nu\xc5\xe2?'
p993
tp994
Rp995
aa(lp996
g28
(g32
S'my\xf6\xc9\xb7\xea\xe4?'
p997
tp998
Rp999
aa(lp1000
g28
(g32
S'\x0fd\xeb\x87\x90\xbe\xe3?'
p1001
tp1002
Rp1003
aa(lp1004
g28
(g32
S'\x0e$\xbc\x99\x88=\xe6?'
p1005
tp1006
Rp1007
aa(lp1008
g28
(g32
S'\xde\x82\xf7\x97\xa7\xa9\xe1?'
p1009
tp1010
Rp1011
aa(lp1012
g28
(g32
S"\xd5'\xc0%X\x13\xff?"
p1013
tp1014
Rp1015
aa(lp1016
g28
(g32
S':m\xd6Q\x87z\xe4?'
p1017
tp1018
Rp1019
aa(lp1020
g28
(g32
S'\xef\x9e\xad\xe3\x12q\xec?'
p1021
tp1022
Rp1023
aa(lp1024
g28
(g32
S'HCW\x92\xb0a\xe6?'
p1025
tp1026
Rp1027
aa(lp1028
g28
(g32
S'\x8c\xc77v7\x9b\xe6?'
p1029
tp1030
Rp1031
aa(lp1032
g28
(g32
S'N\xb5\x88fX\xde\xdd?'
p1033
tp1034
Rp1035
aa(lp1036
g28
(g32
S'\xf84\t7\xe51\xe7?'
p1037
tp1038
Rp1039
aasg114
(lp1040
(lp1041
g28
(g32
S'\x02+:\xe0\xb4\xc9\xc4?'
p1042
tp1043
Rp1044
aa(lp1045
g28
(g32
S'\x12/\xe5Ag\x93\xcd?'
p1046
tp1047
Rp1048
aa(lp1049
g28
(g32
S'|_2SQ}\xd2?'
p1050
tp1051
Rp1052
aa(lp1053
g28
(g32
S'\xc0\xa8\xa5\x85\\\xc9\xc4?'
p1054
tp1055
Rp1056
aa(lp1057
g28
(g32
S'G4C21V\xc9?'
p1058
tp1059
Rp1060
aa(lp1061
g28
(g32
S'\xc6\x0b\xd6h\xb1,\xc9?'
p1062
tp1063
Rp1064
aa(lp1065
g28
(g32
S'\xe1\xc0A\x0f\xc5H\xc7?'
p1066
tp1067
Rp1068
aa(lp1069
g28
(g32
S'\xbd\xcc\x9c!1G\xc8?'
p1070
tp1071
Rp1072
aa(lp1073
g28
(g32
S'\x9a\x81#]PI\xc4?'
p1074
tp1075
Rp1076
aa(lp1077
g28
(g32
S'+\xe3U\xbe$\xdb\xd1?'
p1078
tp1079
Rp1080
aa(lp1081
g28
(g32
S'\xa6\x87[\x8b\xcfr\xd3?'
p1082
tp1083
Rp1084
aa(lp1085
g28
(g32
S'/\xe8\xeb\xef\xc1\x0c\xc9?'
p1086
tp1087
Rp1088
aa(lp1089
g28
(g32
S'[ zk\xa4\xb4\xcd?'
p1090
tp1091
Rp1092
aa(lp1093
g28
(g32
S'\x99a\x96\xaf\xb6\xd4\xda?'
p1094
tp1095
Rp1096
aa(lp1097
g28
(g32
S'\xc8\x80\xdf\xee\xde\xb5\xcb?'
p1098
tp1099
Rp1100
aa(lp1101
g28
(g32
S'Tu\xb1\xdbj-\xb6?'
p1102
tp1103
Rp1104
aa(lp1105
g28
(g32
S'\x18kw\xdbD>\xc4?'
p1106
tp1107
Rp1108
aa(lp1109
g28
(g32
S'l\x0c\xe4\x9d\xe6Y\xc2?'
p1110
tp1111
Rp1112
aa(lp1113
g28
(g32
S'\xd2\xe3\xac\x8e\xae\x05\xc6?'
p1114
tp1115
Rp1116
aa(lp1117
g28
(g32
S'\xe6t\x84\x13\x89~\xc2?'
p1118
tp1119
Rp1120
aassS'M3'
p1121
(dp1122
g3
(lp1123
(lp1124
I2100
aa(lp1125
I2100
aa(lp1126
I2100
aa(lp1127
I2100
aa(lp1128
I2100
aa(lp1129
I2100
aa(lp1130
I2100
aa(lp1131
I2100
aa(lp1132
I2100
aa(lp1133
I2100
aa(lp1134
I2100
aa(lp1135
I2100
aa(lp1136
I2100
aa(lp1137
I2100
aa(lp1138
I2100
aa(lp1139
I2100
aa(lp1140
I2100
aa(lp1141
I2100
aa(lp1142
I2100
aa(lp1143
I2100
aasg25
(lp1144
(lp1145
g28
(g32
S'n\x03\x98 \xef+\xd2?'
p1146
tp1147
Rp1148
aa(lp1149
g28
(g32
S'\xe3\xd4B+\xb9\xf5\xa4?'
p1150
tp1151
Rp1152
aa(lp1153
g28
(g32
S'\xa8^\xb7\xe9\xb9\x83\xc4?'
p1154
tp1155
Rp1156
aa(lp1157
g28
(g32
S'7\r\xf2\x181\xc7\xbd?'
p1158
tp1159
Rp1160
aa(lp1161
g28
(g32
S'\xbc)w\x81\xa9\x9a\xd1?'
p1162
tp1163
Rp1164
aa(lp1165
g28
(g32
S'\xa7e\xd2"\x80\x8b\xd6?'
p1166
tp1167
Rp1168
aa(lp1169
g28
(g32
S'\x02\xc3\xff\xfb\xa3\xe7\xc3?'
p1170
tp1171
Rp1172
aa(lp1173
g28
(g32
S'r\x9f\x1a{Z\xe9\xae?'
p1174
tp1175
Rp1176
aa(lp1177
g28
(g32
S'n\xc5\x9dT\xad\x9b\xd5?'
p1178
tp1179
Rp1180
aa(lp1181
g28
(g32
S'\xdep\x81^\xc4\xdb\xb3?'
p1182
tp1183
Rp1184
aa(lp1185
g28
(g32
S'\x9djtl\xca\x7f\xc0?'
p1186
tp1187
Rp1188
aa(lp1189
g28
(g32
S')Q\xe2>\xfd\xfa\xa8?'
p1190
tp1191
Rp1192
aa(lp1193
g28
(g32
S'\xad\xdcz\xe27\xc4\xcf?'
p1194
tp1195
Rp1196
aa(lp1197
g28
(g32
S' \x10}]\x1d\x10\xba?'
p1198
tp1199
Rp1200
aa(lp1201
g28
(g32
S'l\x8c\xef\xa8B\xb1\xc0?'
p1202
tp1203
Rp1204
aa(lp1205
g28
(g32
S'\xc8\x83\xd0\xd6 5\xb2?'
p1206
tp1207
Rp1208
aa(lp1209
g28
(g32
S'\x12:P\xa6\x8a\x17\xbb?'
p1210
tp1211
Rp1212
aa(lp1213
g28
(g32
S'\x8e\x11\xcbA\xd9\xc9\xc6?'
p1214
tp1215
Rp1216
aa(lp1217
g28
(g32
S'\x18\xb4\xdc6\xf2D\xb0?'
p1218
tp1219
Rp1220
aa(lp1221
g28
(g32
S'4\xb6\x103+\xa8\xc0?'
p1222
tp1223
Rp1224
aasg114
(lp1225
(lp1226
g28
(g32
S'\xb5\xf2Tb\xc89\xa4?'
p1227
tp1228
Rp1229
aa(lp1230
g28
(g32
S'\x1f\xa1\x13eO\xb6\xa0?'
p1231
tp1232
Rp1233
aa(lp1234
g28
(g32
S'\x8a\x1f\xbb\xd1\xebr\x95?'
p1235
tp1236
Rp1237
aa(lp1238
g28
(g32
S'\xb5\xf2@Q\x05\x02\xa6?'
p1239
tp1240
Rp1241
aa(lp1242
g28
(g32
S'<\xee\xa0\xe0Ol\xa7?'
p1243
tp1244
Rp1245
aa(lp1246
g28
(g32
S'{i\xdc}\xc8\r\xae?'
p1247
tp1248
Rp1249
aa(lp1250
g28
(g32
S"'\xe4N.\xac\xf9\xa5?"
p1251
tp1252
Rp1253
aa(lp1254
g28
(g32
S'\xfc5$\x0c\xc7}\x9f?'
p1255
tp1256
Rp1257
aa(lp1258
g28
(g32
S'\x02*PG\x0fK\xa3?'
p1259
tp1260
Rp1261
aa(lp1262
g28
(g32
S'\xd9\xc4\xa4Ja\xd4\xa0?'
p1263
tp1264
Rp1265
aa(lp1266
g28
(g32
S'\xb2\xd7\xc8\x88\xd8\x97\xac?'
p1267
tp1268
Rp1269
aa(lp1270
g28
(g32
S'\xf9\xbb\xad\xbbE\x81\xa4?'
p1271
tp1272
Rp1273
aa(lp1274
g28
(g32
S'\xde\xadx;\x8a\x8f\xa2?'
p1275
tp1276
Rp1277
aa(lp1278
g28
(g32
S'\xa9^a16\x86\x9a?'
p1279
tp1280
Rp1281
aa(lp1282
g28
(g32
S'\xaa\x1b\xe6\xf8\xd8\x18\x9e?'
p1283
tp1284
Rp1285
aa(lp1286
g28
(g32
S'\x8fNr!/\x1f\x9d?'
p1287
tp1288
Rp1289
aa(lp1290
g28
(g32
S'\xc5\xee\xd3CS]\x84?'
p1291
tp1292
Rp1293
aa(lp1294
g28
(g32
S'4\x06`\xcd\xb0\x92\xa0?'
p1295
tp1296
Rp1297
aa(lp1298
g28
(g32
S'\xd9\xb2=8\x0fE\xa1?'
p1299
tp1300
Rp1301
aa(lp1302
g28
(g32
S'}m^\xe5\xa2e\xa3?'
p1303
tp1304
Rp1305
aassS'M2'
p1306
(dp1307
g3
(lp1308
(lp1309
I2100
aa(lp1310
I2100
aa(lp1311
I2100
aa(lp1312
I2100
aa(lp1313
I2100
aa(lp1314
I2100
aa(lp1315
I2100
aa(lp1316
I2100
aa(lp1317
I2100
aa(lp1318
I2100
aa(lp1319
I2100
aa(lp1320
I2100
aa(lp1321
I2100
aa(lp1322
I2100
aa(lp1323
I2100
aa(lp1324
I2100
aa(lp1325
I2100
aa(lp1326
I2100
aa(lp1327
I2100
aa(lp1328
I2100
aasg25
(lp1329
(lp1330
g28
(g32
S'\x17\xc4\xe5\xa8\xe7\xac\xcb?'
p1331
tp1332
Rp1333
aa(lp1334
g28
(g32
S'\xded\xfaem\xd3\xc5?'
p1335
tp1336
Rp1337
aa(lp1338
g28
(g32
S'\xd4R\xa8\xec\xcf\x8e\xc4?'
p1339
tp1340
Rp1341
aa(lp1342
g28
(g32
S'H\xa8\xde\xde\xdca\xc6?'
p1343
tp1344
Rp1345
aa(lp1346
g28
(g32
S'U\xd9\x1c\x1dCB\xc6?'
p1347
tp1348
Rp1349
aa(lp1350
g28
(g32
S'\xec\xa5\xbdp\x05\xd3\xc8?'
p1351
tp1352
Rp1353
aa(lp1354
g28
(g32
S'W\x80\xa2W\x05O\xc6?'
p1355
tp1356
Rp1357
aa(lp1358
g28
(g32
S'\xa3=w\x0f\x97\xcf\xc5?'
p1359
tp1360
Rp1361
aa(lp1362
g28
(g32
S'\x8d0F\x05;\x00\xca?'
p1363
tp1364
Rp1365
aa(lp1366
g28
(g32
S'F#\x0em\xc8\x84\xc9?'
p1367
tp1368
Rp1369
aa(lp1370
g28
(g32
S'(-.\x9d8\xaa\xc4?'
p1371
tp1372
Rp1373
aa(lp1374
g28
(g32
S'\x02\xa3\xb4\xd2sm\xc6?'
p1375
tp1376
Rp1377
aa(lp1378
g28
(g32
S'\xbd\xdcX\x00f\x8c\xc7?'
p1379
tp1380
Rp1381
aa(lp1382
g28
(g32
S'\xa1\xff\xd8\x80\x83-\xc6?'
p1383
tp1384
Rp1385
aa(lp1386
g28
(g32
S'\xa9\xa8\xbe\xadr+\xc9?'
p1387
tp1388
Rp1389
aa(lp1390
g28
(g32
S'\xadl\xe9&M\x12\xc9?'
p1391
tp1392
Rp1393
aa(lp1394
g28
(g32
S'\xf0,%\xaceZ\xc6?'
p1395
tp1396
Rp1397
aa(lp1398
g28
(g32
S'\xb9\xe9_\xce\x94\x9c\xc5?'
p1399
tp1400
Rp1401
aa(lp1402
g28
(g32
S'\x95\xf8\xe6\x01\x9a-\xc7?'
p1403
tp1404
Rp1405
aa(lp1406
g28
(g32
S'\xfc\xe5@y0\x11\xc7?'
p1407
tp1408
Rp1409
aasg114
(lp1410
(lp1411
g28
(g32
S'@\x1dE9\xcav\xc3?'
p1412
tp1413
Rp1414
aa(lp1415
g28
(g32
S'\x0b@\xd0)\x99?\xc4?'
p1416
tp1417
Rp1418
aa(lp1419
g28
(g32
S'\xc4\xba*\x81\x03\x91\xc1?'
p1420
tp1421
Rp1422
aa(lp1423
g28
(g32
S'\x9as\x92kJ\x14\xc2?'
p1424
tp1425
Rp1426
aa(lp1427
g28
(g32
S'\xf8\xdc!B\xea\xb4\xc2?'
p1428
tp1429
Rp1430
aa(lp1431
g28
(g32
S'z\xb0\xd3\xb9\xba\xb2\xc3?'
p1432
tp1433
Rp1434
aa(lp1435
g28
(g32
S'_\x9c\x10w\x06\x19\xc2?'
p1436
tp1437
Rp1438
aa(lp1439
g28
(g32
S'\x16\x85\xfc\xc4]\x8b\xc1?'
p1440
tp1441
Rp1442
aa(lp1443
g28
(g32
S'\xdc}r\xdd\xcd\xb7\xc4?'
p1444
tp1445
Rp1446
aa(lp1447
g28
(g32
S'V\xe9\x00\xcc4?\xc4?'
p1448
tp1449
Rp1450
aa(lp1451
g28
(g32
S'\xb5#\xa9[\x0f\x1d\xbd?'
p1452
tp1453
Rp1454
aa(lp1455
g28
(g32
S'a\x80\xa9\xc1\xab\x87\xc2?'
p1456
tp1457
Rp1458
aa(lp1459
g28
(g32
S'G9\x12\xaeeQ\xc3?'
p1460
tp1461
Rp1462
aa(lp1463
g28
(g32
S'\xb9f\xd1\xa7\x8f;\xc4?'
p1464
tp1465
Rp1466
aa(lp1467
g28
(g32
S'\xf5\xd6#\xe2nh\xc2?'
p1468
tp1469
Rp1470
aa(lp1471
g28
(g32
S'\xe7Mn(a\xe8\xc4?'
p1472
tp1473
Rp1474
aa(lp1475
g28
(g32
S'\xd5\xc5X\xf2,W\xc2?'
p1476
tp1477
Rp1478
aa(lp1479
g28
(g32
S'dzn\xcd\x84\xf7\xc3?'
p1480
tp1481
Rp1482
aa(lp1483
g28
(g32
S'\x9d\xbe\x88 \x18\x86\xc3?'
p1484
tp1485
Rp1486
aa(lp1487
g28
(g32
S'\xce7\x92jp\xe8\xc0?'
p1488
tp1489
Rp1490
aassS'X2'
p1491
(dp1492
g3
(lp1493
(lp1494
I2100
aa(lp1495
I2100
aa(lp1496
I2100
aa(lp1497
I2100
aa(lp1498
I2100
aa(lp1499
I2100
aa(lp1500
I2100
aa(lp1501
I2100
aa(lp1502
I2100
aa(lp1503
I2100
aa(lp1504
I2100
aa(lp1505
I2100
aa(lp1506
I2100
aa(lp1507
I2100
aa(lp1508
I2100
aa(lp1509
I2100
aa(lp1510
I2100
aa(lp1511
I2100
aa(lp1512
I2100
aa(lp1513
I2100
aasg25
(lp1514
(lp1515
g28
(g32
S"0'\x92\xf2\\\xa9V?"
p1516
tp1517
Rp1518
aa(lp1519
g28
(g32
S's\x7f\xca\x1a6\xf2[?'
p1520
tp1521
Rp1522
aa(lp1523
g28
(g32
S'\x06\x8d_XN\x08P?'
p1524
tp1525
Rp1526
aa(lp1527
g28
(g32
S'\xbfW\x89v\x84DR?'
p1528
tp1529
Rp1530
aa(lp1531
g28
(g32
S'\xcaWi*\x9d\xd0@?'
p1532
tp1533
Rp1534
aa(lp1535
g28
(g32
S'C\xcbF\xbb\xfcHK?'
p1536
tp1537
Rp1538
aa(lp1539
g28
(g32
S'\xe1\xc0\xe3w\xc2\xa5D?'
p1540
tp1541
Rp1542
aa(lp1543
g28
(g32
S'0Y\xbfO\xe8CY?'
p1544
tp1545
Rp1546
aa(lp1547
g28
(g32
S'E\x07`\xfe~\xc8N?'
p1548
tp1549
Rp1550
aa(lp1551
g28
(g32
S'\x86\xb3\xb8\x08\x8a\xeeK?'
p1552
tp1553
Rp1554
aa(lp1555
g28
(g32
S'\xdaTe\xf4#\x84S?'
p1556
tp1557
Rp1558
aa(lp1559
g28
(g32
S'\xed\xa7\x97\x95\xe7\x1cQ?'
p1560
tp1561
Rp1562
aa(lp1563
g28
(g32
S'\xb5b\xeb\x83\xad\x8bV?'
p1564
tp1565
Rp1566
aa(lp1567
g28
(g32
S'\xb8\xa1\xa2\xac\x94\x02U?'
p1568
tp1569
Rp1570
aa(lp1571
g28
(g32
S'\x80\xcf\xbbg\xbcVK?'
p1572
tp1573
Rp1574
aa(lp1575
g28
(g32
S'\x00\x19\x1d\x927vI?'
p1576
tp1577
Rp1578
aa(lp1579
g28
(g32
S'\x0fB\xf4\xa8\x0eaT?'
p1580
tp1581
Rp1582
aa(lp1583
g28
(g32
S'\xde\x83\x13\x12\xcc\x19H?'
p1584
tp1585
Rp1586
aa(lp1587
g28
(g32
S'\x8fP\xe6\x1d\xefhE?'
p1588
tp1589
Rp1590
aa(lp1591
g28
(g32
S'b\xd3\xee\xf8\xf6\x8dF?'
p1592
tp1593
Rp1594
aasg114
(lp1595
(lp1596
g28
(g32
S'@GI1\xd1\xe7\x8a?'
p1597
tp1598
Rp1599
aa(lp1600
g28
(g32
S'\x80\xe5\xe4\xbf|\xd1\x96?'
p1601
tp1602
Rp1603
aa(lp1604
g28
(g32
S'?\xceB\xa1ta\x87?'
p1605
tp1606
Rp1607
aa(lp1608
g28
(g32
S'D\xeel\x81\xe38\x85?'
p1609
tp1610
Rp1611
aa(lp1612
g28
(g32
S'\x12\x9fv\xb2;\xae\x85?'
p1613
tp1614
Rp1615
aa(lp1616
g28
(g32
S'\xc0\xa3\xe2a\\\xa5\x8a?'
p1617
tp1618
Rp1619
aa(lp1620
g28
(g32
S'\nd\xae!\t\x8d\x8e?'
p1621
tp1622
Rp1623
aa(lp1624
g28
(g32
S'\xae!\r kd\x8b?'
p1625
tp1626
Rp1627
aa(lp1628
g28
(g32
S'\xc9\xd0\xa3o\xd1\x0f\x8d?'
p1629
tp1630
Rp1631
aa(lp1632
g28
(g32
S'\xe3\x13hB7\xec\x91?'
p1633
tp1634
Rp1635
aa(lp1636
g28
(g32
S'I\x8bH\x06rI\x87?'
p1637
tp1638
Rp1639
aa(lp1640
g28
(g32
S'\xc1\xac\x89c\xe4\x95\x8c?'
p1641
tp1642
Rp1643
aa(lp1644
g28
(g32
S'\x81wEj]0\x88?'
p1645
tp1646
Rp1647
aa(lp1648
g28
(g32
S'\xdatW\xcf\xe7\xa3\x8b?'
p1649
tp1650
Rp1651
aa(lp1652
g28
(g32
S'\xdd\x93jTK?\x89?'
p1653
tp1654
Rp1655
aa(lp1656
g28
(g32
S'\n\x95\xe0k$}\x89?'
p1657
tp1658
Rp1659
aa(lp1660
g28
(g32
S'\xee\xd5g\xa8ms\x86?'
p1661
tp1662
Rp1663
aa(lp1664
g28
(g32
S'C\xb0U\xee\x02\xf0\x8b?'
p1665
tp1666
Rp1667
aa(lp1668
g28
(g32
S'\xe55)\x9dxx\x88?'
p1669
tp1670
Rp1671
aa(lp1672
g28
(g32
S'\x00\x15\n\xf8\xf6\x83\x84?'
p1673
tp1674
Rp1675
aassS'X3'
p1676
(dp1677
g3
(lp1678
(lp1679
I2100
aa(lp1680
I2100
aa(lp1681
I2100
aa(lp1682
I2100
aa(lp1683
I2100
aa(lp1684
I2100
aa(lp1685
I2100
aa(lp1686
I2100
aa(lp1687
I2100
aa(lp1688
I2100
aa(lp1689
I2100
aa(lp1690
I2100
aa(lp1691
I2100
aa(lp1692
I2100
aa(lp1693
I2100
aa(lp1694
I2100
aa(lp1695
I2100
aa(lp1696
I2100
aa(lp1697
I2100
aa(lp1698
I2100
aasg25
(lp1699
(lp1700
g28
(g32
S'\xd3m=\x97\xfb\xa2=?'
p1701
tp1702
Rp1703
aa(lp1704
g28
(g32
S'W\xd0\xec\xf1\xf6\xbf0?'
p1705
tp1706
Rp1707
aa(lp1708
g28
(g32
S'\x01Y\xbd\xafC\xf59?'
p1709
tp1710
Rp1711
aa(lp1712
g28
(g32
S'\x91\xc8G\x86\xc2MF?'
p1713
tp1714
Rp1715
aa(lp1716
g28
(g32
S'\x87\xb3G\x08\x80\xac3?'
p1717
tp1718
Rp1719
aa(lp1720
g28
(g32
S'\xdc\xb0Z\xb6\xe8\x9bB?'
p1721
tp1722
Rp1723
aa(lp1724
g28
(g32
S'\xd6^f\xdbq+4?'
p1725
tp1726
Rp1727
aa(lp1728
g28
(g32
S'\xc9\xf0\xe1\xd3\x00\xba=?'
p1729
tp1730
Rp1731
aa(lp1732
g28
(g32
S'<\xfb>\xa5\x94\xa0@?'
p1733
tp1734
Rp1735
aa(lp1736
g28
(g32
S'\xcf*i\t\x9axM?'
p1737
tp1738
Rp1739
aa(lp1740
g28
(g32
S'`o\xff)\xa4B>?'
p1741
tp1742
Rp1743
aa(lp1744
g28
(g32
S'\xef\xa1\x18Rn\xe0A?'
p1745
tp1746
Rp1747
aa(lp1748
g28
(g32
S'M{\x97\xc0\xfe\x8f5?'
p1749
tp1750
Rp1751
aa(lp1752
g28
(g32
S'\xdf?\x89l#[D?'
p1753
tp1754
Rp1755
aa(lp1756
g28
(g32
S'\xda\xcb\x81\xd3\xe0\xa9;?'
p1757
tp1758
Rp1759
aa(lp1760
g28
(g32
S'\x97\xf9\xcb1s*??'
p1761
tp1762
Rp1763
aa(lp1764
g28
(g32
S'_\x86\xb5\x9c\x01H0?'
p1765
tp1766
Rp1767
aa(lp1768
g28
(g32
S'\xb2\t\xa2\x0b\n\x1fQ?'
p1769
tp1770
Rp1771
aa(lp1772
g28
(g32
S'Y$\xacG\x94uB?'
p1773
tp1774
Rp1775
aa(lp1776
g28
(g32
S')\xecA<\x13r@?'
p1777
tp1778
Rp1779
aasg114
(lp1780
(lp1781
g28
(g32
S';\\OsZ3{?'
p1782
tp1783
Rp1784
aa(lp1785
g28
(g32
S'\xe4o\xa1\xb4\x9f\xa4y?'
p1786
tp1787
Rp1788
aa(lp1789
g28
(g32
S'\xaep@7@\xb9|?'
p1790
tp1791
Rp1792
aa(lp1793
g28
(g32
S'&\xf6\x9dt\x99\xc0\x80?'
p1794
tp1795
Rp1796
aa(lp1797
g28
(g32
S"\x86\t\x92'\x97\xbf\x83?"
p1798
tp1799
Rp1800
aa(lp1801
g28
(g32
S'\xd7\xbc\xc6\xe6dm|?'
p1802
tp1803
Rp1804
aa(lp1805
g28
(g32
S'\xc6\xbf\xc0J\x15dv?'
p1806
tp1807
Rp1808
aa(lp1809
g28
(g32
S'\x03`:Q\x19\xadv?'
p1810
tp1811
Rp1812
aa(lp1813
g28
(g32
S'\xe8\xdb|\xe6\xd8\x96\x85?'
p1814
tp1815
Rp1816
aa(lp1817
g28
(g32
S'[lw\xbf\x11\xeb~?'
p1818
tp1819
Rp1820
aa(lp1821
g28
(g32
S'\xbbc\x18\xc9C\xd5~?'
p1822
tp1823
Rp1824
aa(lp1825
g28
(g32
S"P9'aI\x1f\x84?"
p1826
tp1827
Rp1828
aa(lp1829
g28
(g32
S'\x1bR\xac\x11\xd9ax?'
p1830
tp1831
Rp1832
aa(lp1833
g28
(g32
S'u\xee\xd5\x91\x88\r\x84?'
p1834
tp1835
Rp1836
aa(lp1837
g28
(g32
S'Ln\xe2\x84\xb8\x1d\x8b?'
p1838
tp1839
Rp1840
aa(lp1841
g28
(g32
S'[\xf2K \xdb\x96\x84?'
p1842
tp1843
Rp1844
aa(lp1845
g28
(g32
S'\x8d\x95\xba/\xcc\xcf\x81?'
p1846
tp1847
Rp1848
aa(lp1849
g28
(g32
S'4e\n\x01W\xa2z?'
p1850
tp1851
Rp1852
aa(lp1853
g28
(g32
S',\x91<\x19\xcf\x0e\x7f?'
p1854
tp1855
Rp1856
aa(lp1857
g28
(g32
S'\xa0M\xa5\xf34\xe4x?'
p1858
tp1859
Rp1860
aassS'X1'
p1861
(dp1862
g3
(lp1863
(lp1864
I2100
aa(lp1865
I2100
aa(lp1866
I2100
aa(lp1867
I2100
aa(lp1868
I2100
aa(lp1869
I2100
aa(lp1870
I2100
aa(lp1871
I2100
aa(lp1872
I2100
aa(lp1873
I2100
aa(lp1874
I2100
aa(lp1875
I2100
aa(lp1876
I2100
aa(lp1877
I2100
aa(lp1878
I2100
aa(lp1879
I2100
aa(lp1880
I2100
aa(lp1881
I2100
aa(lp1882
I2100
aa(lp1883
I2100
aasg25
(lp1884
(lp1885
g28
(g32
S'\xf4&\xa3\xe8FaU?'
p1886
tp1887
Rp1888
aa(lp1889
g28
(g32
S'\xd3\xe3\xb7\xc5\x05dL?'
p1890
tp1891
Rp1892
aa(lp1893
g28
(g32
S'N@\r\x87<\xa1B?'
p1894
tp1895
Rp1896
aa(lp1897
g28
(g32
S'\x1517S\xe2\x0cF?'
p1898
tp1899
Rp1900
aa(lp1901
g28
(g32
S'\xccj\xa0K\xb7\xb9B?'
p1902
tp1903
Rp1904
aa(lp1905
g28
(g32
S'\xf8\xac\xcb~\x7fxJ?'
p1906
tp1907
Rp1908
aa(lp1909
g28
(g32
S'|\x05\xbav\xe4\xfd??'
p1910
tp1911
Rp1912
aa(lp1913
g28
(g32
S'5\xe7Y\x8d>\xad??'
p1914
tp1915
Rp1916
aa(lp1917
g28
(g32
S'\x88\xaf\xe3\xaa\xeejQ?'
p1918
tp1919
Rp1920
aa(lp1921
g28
(g32
S'\xc1\x01\xe4\x8b\xdbIQ?'
p1922
tp1923
Rp1924
aa(lp1925
g28
(g32
S'\x9a\x9bV\xf9\xb4\xc1T?'
p1926
tp1927
Rp1928
aa(lp1929
g28
(g32
S'z\xe6t\xcf\xe3\x9fC?'
p1930
tp1931
Rp1932
aa(lp1933
g28
(g32
S'\xd0\xba+a\xc1\xc6P?'
p1934
tp1935
Rp1936
aa(lp1937
g28
(g32
S'nM8\xa95\tD?'
p1938
tp1939
Rp1940
aa(lp1941
g28
(g32
S'\x08\xbf\x08\x88\x9d\xb7:?'
p1942
tp1943
Rp1944
aa(lp1945
g28
(g32
S'\xe2\x9e\xc9/1\xa7S?'
p1946
tp1947
Rp1948
aa(lp1949
g28
(g32
S'\xac\\\x86\x1f\xbe\x00A?'
p1950
tp1951
Rp1952
aa(lp1953
g28
(g32
S'G1\x0f2d\xb8I?'
p1954
tp1955
Rp1956
aa(lp1957
g28
(g32
S'\xa6\xf2\xc25P\x06H?'
p1958
tp1959
Rp1960
aa(lp1961
g28
(g32
S'\x14o\xa68\xbf\x1aC?'
p1962
tp1963
Rp1964
aasg114
(lp1965
(lp1966
g28
(g32
S';m!\xf9\xcdB\x96?'
p1967
tp1968
Rp1969
aa(lp1970
g28
(g32
S'&\xc1jJ\x1fy\x92?'
p1971
tp1972
Rp1973
aa(lp1974
g28
(g32
S'DfDiZI\x98?'
p1975
tp1976
Rp1977
aa(lp1978
g28
(g32
S'\x04H-\x9e\x91D\x9b?'
p1979
tp1980
Rp1981
aa(lp1982
g28
(g32
S'e\xeb\xdd\xe7\x98\xab\x94?'
p1983
tp1984
Rp1985
aa(lp1986
g28
(g32
S'\xdd\x1d\xec\xf9\x7fs\x9d?'
p1987
tp1988
Rp1989
aa(lp1990
g28
(g32
S'A[\xc7\xaf\xc6\x83\x98?'
p1991
tp1992
Rp1993
aa(lp1994
g28
(g32
S'\xba\xbdN\xe8\xf5\x9a\x98?'
p1995
tp1996
Rp1997
aa(lp1998
g28
(g32
S'\xe4\xd7\xbb\xf9\x1b:\x97?'
p1999
tp2000
Rp2001
aa(lp2002
g28
(g32
S'#~\x08\xadz\xa0\x91?'
p2003
tp2004
Rp2005
aa(lp2006
g28
(g32
S'\xa4\xb29\x9e\xe9(\x96?'
p2007
tp2008
Rp2009
aa(lp2010
g28
(g32
S'\x0f\x0e9#\xcf\xc9\x90?'
p2011
tp2012
Rp2013
aa(lp2014
g28
(g32
S'y\xf7\x93%\x18;\x93?'
p2015
tp2016
Rp2017
aa(lp2018
g28
(g32
S'\xf1\x1e\x12\x9b\x8a\xc6\x96?'
p2019
tp2020
Rp2021
aa(lp2022
g28
(g32
S'\xb7j\xfe\x9f\xaa\x1a\x94?'
p2023
tp2024
Rp2025
aa(lp2026
g28
(g32
S'AC!\x84\x83t\x95?'
p2027
tp2028
Rp2029
aa(lp2030
g28
(g32
S'W\x0c\x1ag\xf1\r\x97?'
p2031
tp2032
Rp2033
aa(lp2034
g28
(g32
S'\xda^~\nt\x14\x9a?'
p2035
tp2036
Rp2037
aa(lp2038
g28
(g32
S'\xad\xde\x05t\rJ\x90?'
p2039
tp2040
Rp2041
aa(lp2042
g28
(g32
S'\x9c\x83\xdcnR\xd4\x95?'
p2043
tp2044
Rp2045
aassS'X4'
p2046
(dp2047
g3
(lp2048
(lp2049
I2100
aa(lp2050
I2100
aa(lp2051
I2100
aa(lp2052
I2100
aa(lp2053
I2100
aa(lp2054
I2100
aa(lp2055
I2100
aa(lp2056
I2100
aa(lp2057
I2100
aa(lp2058
I2100
aa(lp2059
I2100
aa(lp2060
I2100
aa(lp2061
I2100
aa(lp2062
I2100
aa(lp2063
I2100
aa(lp2064
I2100
aa(lp2065
I2100
aa(lp2066
I2100
aa(lp2067
I2100
aa(lp2068
I2100
aasg25
(lp2069
(lp2070
g28
(g32
S'\xc2{\x8d\xa4\xe6\x9fY?'
p2071
tp2072
Rp2073
aa(lp2074
g28
(g32
S'\tC\x1a\x82t\x8aP?'
p2075
tp2076
Rp2077
aa(lp2078
g28
(g32
S'>\xcf\xce\n\xc4\x19R?'
p2079
tp2080
Rp2081
aa(lp2082
g28
(g32
S'\xb9\xfc\x8an\xbb\x9f@?'
p2083
tp2084
Rp2085
aa(lp2086
g28
(g32
S'Lp&yJ\xd4R?'
p2087
tp2088
Rp2089
aa(lp2090
g28
(g32
S'\xbe\xde}Je;\\?'
p2091
tp2092
Rp2093
aa(lp2094
g28
(g32
S'\x16\xef\x9d\x91\xbb\xe7)?'
p2095
tp2096
Rp2097
aa(lp2098
g28
(g32
S'\xc9U\xa4\x92\xbeNQ?'
p2099
tp2100
Rp2101
aa(lp2102
g28
(g32
S'\xf5\xd7\xc0w\xd5\x97V?'
p2103
tp2104
Rp2105
aa(lp2106
g28
(g32
S'\x0e\xd6\x1a\x8d\x8aWQ?'
p2107
tp2108
Rp2109
aa(lp2110
g28
(g32
S'\xc4\xfbbr$\x93W?'
p2111
tp2112
Rp2113
aa(lp2114
g28
(g32
S'f\x1c\xaaG\x18\x89E?'
p2115
tp2116
Rp2117
aa(lp2118
g28
(g32
S'p\xf0\xbd\xb0nWP?'
p2119
tp2120
Rp2121
aa(lp2122
g28
(g32
S'$\xa2\xfe\xdf)0g?'
p2123
tp2124
Rp2125
aa(lp2126
g28
(g32
S'\x98U\xd2\xdf\x08\xd7V?'
p2127
tp2128
Rp2129
aa(lp2130
g28
(g32
S'\x0e\xbet\xb3\xdc\xd1R?'
p2131
tp2132
Rp2133
aa(lp2134
g28
(g32
S'\xa9_\xc2`\xcc<Y?'
p2135
tp2136
Rp2137
aa(lp2138
g28
(g32
S'\xaaD\xe8\xab1\xd30?'
p2139
tp2140
Rp2141
aa(lp2142
g28
(g32
S'*]\x8b\r\x08lP?'
p2143
tp2144
Rp2145
aa(lp2146
g28
(g32
S'3\x16]\xab\xeee2?'
p2147
tp2148
Rp2149
aasg114
(lp2150
(lp2151
g28
(g32
S'\xe8\xa1E\xd4\xee\x18\x9a?'
p2152
tp2153
Rp2154
aa(lp2155
g28
(g32
S'\x91\x00\xc7\xa9\x08%\x90?'
p2156
tp2157
Rp2158
aa(lp2159
g28
(g32
S'\x1d\x8f\x8b\xa0\xfc\x9c\x8e?'
p2160
tp2161
Rp2162
aa(lp2163
g28
(g32
S'<\x14I\xfe\xa0"\x92?'
p2164
tp2165
Rp2166
aa(lp2167
g28
(g32
S'~\xe0\\\xdc\x0e\xa6\x90?'
p2168
tp2169
Rp2170
aa(lp2171
g28
(g32
S'j-\xba\x98\x1b\xe4\x93?'
p2172
tp2173
Rp2174
aa(lp2175
g28
(g32
S"'v\x12[\x1dg\x94?"
p2176
tp2177
Rp2178
aa(lp2179
g28
(g32
S'\xaf\x00\x87\xe7,7\x91?'
p2180
tp2181
Rp2182
aa(lp2183
g28
(g32
S'\xcf\xe3\x8a\x19\xae\xbf\x8e?'
p2184
tp2185
Rp2186
aa(lp2187
g28
(g32
S'-\x0185\xbd^\x93?'
p2188
tp2189
Rp2190
aa(lp2191
g28
(g32
S'\x96\xb4\x92\x05\xd2~\x92?'
p2192
tp2193
Rp2194
aa(lp2195
g28
(g32
S'D\x88\n@j\xfe\x92?'
p2196
tp2197
Rp2198
aa(lp2199
g28
(g32
S'\xfd\x89"fm\xb4\x99?'
p2200
tp2201
Rp2202
aa(lp2203
g28
(g32
S'\x05\xcb\x03\xa3e2\x8f?'
p2204
tp2205
Rp2206
aa(lp2207
g28
(g32
S'\x1a\xb2QsCJ\x96?'
p2208
tp2209
Rp2210
aa(lp2211
g28
(g32
S'\xd2[A\x8e1n\x93?'
p2212
tp2213
Rp2214
aa(lp2215
g28
(g32
S'\xd1Qx\x7f\x11\xeb\x98?'
p2216
tp2217
Rp2218
aa(lp2219
g28
(g32
S'[\x94N\x9c\x13l\x92?'
p2220
tp2221
Rp2222
aa(lp2223
g28
(g32
S'\xdb\xb7 s\xaa\xd5\x99?'
p2224
tp2225
Rp2226
aa(lp2227
g28
(g32
S'l\x13\xa4q\xc1\xe4\x94?'
p2228
tp2229
Rp2230
aassS'X5'
p2231
(dp2232
g3
(lp2233
(lp2234
I2100
aa(lp2235
I2100
aa(lp2236
I2100
aa(lp2237
I2100
aa(lp2238
I2100
aa(lp2239
I2100
aa(lp2240
I2100
aa(lp2241
I2100
aa(lp2242
I2100
aa(lp2243
I2100
aa(lp2244
I2100
aa(lp2245
I2100
aa(lp2246
I2100
aa(lp2247
I2100
aa(lp2248
I2100
aa(lp2249
I2100
aa(lp2250
I2100
aa(lp2251
I2100
aa(lp2252
I2100
aa(lp2253
I2100
aasg25
(lp2254
(lp2255
g28
(g32
S'\xde/\x16\x18\xa8XN?'
p2256
tp2257
Rp2258
aa(lp2259
g28
(g32
S'\x06\x8bz@k`\\?'
p2260
tp2261
Rp2262
aa(lp2263
g28
(g32
S'F\x80V,L[T?'
p2264
tp2265
Rp2266
aa(lp2267
g28
(g32
S'u\xa8\xacDL\xe9F?'
p2268
tp2269
Rp2270
aa(lp2271
g28
(g32
S'6\xec\xe3c\xc2\xf2W?'
p2272
tp2273
Rp2274
aa(lp2275
g28
(g32
S'\xf2^\x98\xcb\x08\xfbi?'
p2276
tp2277
Rp2278
aa(lp2279
g28
(g32
S'\xbe\xcf\xfe\xdavb]?'
p2280
tp2281
Rp2282
aa(lp2283
g28
(g32
S'\xfa(8aP\rI?'
p2284
tp2285
Rp2286
aa(lp2287
g28
(g32
S'\xe6\xe3\xb5M\xbf\xa1R?'
p2288
tp2289
Rp2290
aa(lp2291
g28
(g32
S'\\E\x1f\xbf\x90\xc1`?'
p2292
tp2293
Rp2294
aa(lp2295
g28
(g32
S'c\xc6\x02\xb3\xedt??'
p2296
tp2297
Rp2298
aa(lp2299
g28
(g32
S'\x16\xe3\x9b\x9d\xa8\x0fE?'
p2300
tp2301
Rp2302
aa(lp2303
g28
(g32
S'r\x07\xd0\x0bwm8?'
p2304
tp2305
Rp2306
aa(lp2307
g28
(g32
S'J.\xb1K\xd9mH?'
p2308
tp2309
Rp2310
aa(lp2311
g28
(g32
S'\x95\xcb\x07\x80\x85`d?'
p2312
tp2313
Rp2314
aa(lp2315
g28
(g32
S'\xe32\x93\xd0zSC?'
p2316
tp2317
Rp2318
aa(lp2319
g28
(g32
S'>\x1f6n\x8e\xf0c?'
p2320
tp2321
Rp2322
aa(lp2323
g28
(g32
S'\xd1q\xe2\x0e\x86\tP?'
p2324
tp2325
Rp2326
aa(lp2327
g28
(g32
S')\x1d\xe3\x14\xb5\x1e_?'
p2328
tp2329
Rp2330
aa(lp2331
g28
(g32
S'\xd5a\x13\x1a{\xb5Q?'
p2332
tp2333
Rp2334
aasg114
(lp2335
(lp2336
g28
(g32
S'\xa0\xf6\x96/\x96\xa9\x90?'
p2337
tp2338
Rp2339
aa(lp2340
g28
(g32
S'\x92a\xae"\xa8\xc8\x9b?'
p2341
tp2342
Rp2343
aa(lp2344
g28
(g32
S'\xcdI\xfe\x17|\xe4\x94?'
p2345
tp2346
Rp2347
aa(lp2348
g28
(g32
S'Q2.\xcaL)\x8b?'
p2349
tp2350
Rp2351
aa(lp2352
g28
(g32
S'\xefI`\xae\xaf\x13\x97?'
p2353
tp2354
Rp2355
aa(lp2356
g28
(g32
S'\xf6\x83X\xe7j\x86\x97?'
p2357
tp2358
Rp2359
aa(lp2360
g28
(g32
S'\x89\x92\xca\xd5z\xf5\x97?'
p2361
tp2362
Rp2363
aa(lp2364
g28
(g32
S'\x1b\x0fA\x90\xedT\x92?'
p2365
tp2366
Rp2367
aa(lp2368
g28
(g32
S'\x83C\xf6\xb5\x0f\n\x8e?'
p2369
tp2370
Rp2371
aa(lp2372
g28
(g32
S'd\x96{*\xedR\x94?'
p2373
tp2374
Rp2375
aa(lp2376
g28
(g32
S'\xcb\xd2\x90\xa1J\x1b\x92?'
p2377
tp2378
Rp2379
aa(lp2380
g28
(g32
S'^\xef\x7f\x951\xf5\x93?'
p2381
tp2382
Rp2383
aa(lp2384
g28
(g32
S'qyR\xfa\xc2\xcb\x92?'
p2385
tp2386
Rp2387
aa(lp2388
g28
(g32
S'm\xb2$\xc2:z\x92?'
p2389
tp2390
Rp2391
aa(lp2392
g28
(g32
S'\xbc\xaf\xb5\xe7)\x0f\x8f?'
p2393
tp2394
Rp2395
aa(lp2396
g28
(g32
S'\x158?\x8c\xde\x80\x92?'
p2397
tp2398
Rp2399
aa(lp2400
g28
(g32
S'\x031\xae\xa7u\xd4\x90?'
p2401
tp2402
Rp2403
aa(lp2404
g28
(g32
S'Cs\x98\xb5\xa29\x93?'
p2405
tp2406
Rp2407
aa(lp2408
g28
(g32
S'\xce\x95\xb6\xac?P\x95?'
p2409
tp2410
Rp2411
aa(lp2412
g28
(g32
S'\xfd\xb9y\xe1\xa1g\x92?'
p2413
tp2414
Rp2415
aass.