(dp0
S'M1'
p1
(dp2
S'evals'
p3
(lp4
I72
asS'igd'
p5
(lp6
cnumpy.core.multiarray
scalar
p7
(cnumpy
dtype
p8
(S'f8'
p9
I0
I1
tp10
Rp11
(I3
S'<'
p12
NNNI-1
I-1
I0
tp13
bS'\xba\x05@\xf3\xd2\x9d\x9c?'
p14
tp15
Rp16
asS'gen_dist'
p17
(lp18
g7
(g11
S'GI\x87\x1a\x0e-z?'
p19
tp20
Rp21
asS'time'
p22
F20.93366503715515
ss.