(dp0
S'M1'
p1
(dp2
S'evals'
p3
(lp4
I73
asS'igd'
p5
(lp6
cnumpy.core.multiarray
scalar
p7
(cnumpy
dtype
p8
(S'f8'
p9
I0
I1
tp10
Rp11
(I3
S'<'
p12
NNNI-1
I-1
I0
tp13
bS'b\xcc\xd9\xe1\xb4.\x91?'
p14
tp15
Rp16
asS'gen_dist'
p17
(lp18
g7
(g11
S'\x07F\x8a\x06\xfch~?'
p19
tp20
Rp21
asS'time'
p22
F24.22039794921875
ss.