(dp0
S'M2'
p1
(dp2
S'evals'
p3
(lp4
I71
asS'igd'
p5
(lp6
cnumpy.core.multiarray
scalar
p7
(cnumpy
dtype
p8
(S'f8'
p9
I0
I1
tp10
Rp11
(I3
S'<'
p12
NNNI-1
I-1
I0
tp13
bS'\x85\x8d\xba\xf1D\xf0\x86?'
p14
tp15
Rp16
asS'gen_dist'
p17
(lp18
g7
(g11
S'<\x07\x01\xb0_\xa8r?'
p19
tp20
Rp21
asS'time'
p22
F26.189485788345337
ss.