(dp0
S'M3'
p1
(dp2
S'evals'
p3
(lp4
I73
asS'igd'
p5
(lp6
cnumpy.core.multiarray
scalar
p7
(cnumpy
dtype
p8
(S'f8'
p9
I0
I1
tp10
Rp11
(I3
S'<'
p12
NNNI-1
I-1
I0
tp13
bS'\xfc\x13\xf3\x8a\x0f\x14\x91?'
p14
tp15
Rp16
asS'gen_dist'
p17
(lp18
g7
(g11
S"\xc4'\xd6wF<p?"
p19
tp20
Rp21
asS'time'
p22
F26.709797859191895
ss.