(dp0
S'P2'
p1
(dp2
S'evals'
p3
(lp4
I73
asS'igd'
p5
(lp6
cnumpy.core.multiarray
scalar
p7
(cnumpy
dtype
p8
(S'f8'
p9
I0
I1
tp10
Rp11
(I3
S'<'
p12
NNNI-1
I-1
I0
tp13
bS'\xfa\xc7\x8fX\x7f\n\xd0?'
p14
tp15
Rp16
asS'gen_dist'
p17
(lp18
g7
(g11
S'\xaf{\xb9\xec\xfd\x80\xc0?'
p19
tp20
Rp21
asS'time'
p22
F15.704164981842041
ss.