(dp0
S'P3'
p1
(dp2
S'evals'
p3
(lp4
I75
asS'igd'
p5
(lp6
cnumpy.core.multiarray
scalar
p7
(cnumpy
dtype
p8
(S'f8'
p9
I0
I1
tp10
Rp11
(I3
S'<'
p12
NNNI-1
I-1
I0
tp13
bS'\x943\xd7k\xdc\xd8\xa4?'
p14
tp15
Rp16
asS'gen_dist'
p17
(lp18
g7
(g11
S'b\xe1\x04\xa9(\x0b\xa0?'
p19
tp20
Rp21
asS'time'
p22
F14.178128004074097
ss.