(dp0
S'P4'
p1
(dp2
S'evals'
p3
(lp4
I72
asS'igd'
p5
(lp6
cnumpy.core.multiarray
scalar
p7
(cnumpy
dtype
p8
(S'f8'
p9
I0
I1
tp10
Rp11
(I3
S'<'
p12
NNNI-1
I-1
I0
tp13
bS'\xf5\xde\xaa\x7f\x13\x95\xe6?'
p14
tp15
Rp16
asS'gen_dist'
p17
(lp18
g7
(g11
S'\xdb\x97\x9d\x0b\xf9:\xa5?'
p19
tp20
Rp21
asS'time'
p22
F13.787060976028442
ss.