(dp0
S'X1'
p1
(dp2
S'evals'
p3
(lp4
I73
asS'igd'
p5
(lp6
cnumpy.core.multiarray
scalar
p7
(cnumpy
dtype
p8
(S'f8'
p9
I0
I1
tp10
Rp11
(I3
S'<'
p12
NNNI-1
I-1
I0
tp13
bS'\xf0\xd9\xd4\x9a\xa8\xb5\x86?'
p14
tp15
Rp16
asS'gen_dist'
p17
(lp18
g7
(g11
S'\xbc\xf2\xa3\xcdak\xad?'
p19
tp20
Rp21
asS'time'
p22
F21.617126941680908
ss.