(dp0
S'X2'
p1
(dp2
S'evals'
p3
(lp4
I72
asS'igd'
p5
(lp6
cnumpy.core.multiarray
scalar
p7
(cnumpy
dtype
p8
(S'f8'
p9
I0
I1
tp10
Rp11
(I3
S'<'
p12
NNNI-1
I-1
I0
tp13
bS'&gRJz\xf8y?'
p14
tp15
Rp16
asS'gen_dist'
p17
(lp18
g7
(g11
S'P:\x04\xe4\xe8\xb9\xa7?'
p19
tp20
Rp21
asS'time'
p22
F17.662270069122314
ss.