(dp0
S'X3'
p1
(dp2
S'evals'
p3
(lp4
I71
asS'igd'
p5
(lp6
cnumpy.core.multiarray
scalar
p7
(cnumpy
dtype
p8
(S'f8'
p9
I0
I1
tp10
Rp11
(I3
S'<'
p12
NNNI-1
I-1
I0
tp13
bS'\xaf\x85\x8c\xf0g||?'
p14
tp15
Rp16
asS'gen_dist'
p17
(lp18
g7
(g11
S'\x8f\x02\xe1\xf7\x04ru?'
p19
tp20
Rp21
asS'time'
p22
F20.903174877166748
ss.